
minexample.prg.elf:	file format elf32-mos

SYMBOL TABLE:
00000000 l    df *ABS*	00000000 exit-return.c
00002015 l       .basic_header	00000000 next_line
0000fff0 l       *ABS*	00000000 PLOT
00000000 l    df *ABS*	00000000 zero-bss.c
00000000 l    df *ABS*	00000000 zero-zp-bss.c
00000000 l    df *ABS*	00000000 ld-temp.o
00002074 l     F .text	00000138 cputln
00003ae8 l     O .bss	00000001 g_curScreenH
00000024 l     O .zp.bss	00000001 g_curY
00000022 l     O .zp.bss	00000001 g_curScreenW
000025f5 l     F .text	0000008b lcopy
00002680 l     F .text	00000074 lfill
00000023 l     O .zp.bss	00000001 g_curX
00000025 l     O .zp.bss	00000014 dmalist
00003ae9 l     O .bss	000002fd escapeCode
000024b9 l     F .text	00000001 escNOP
00002518 l     F .text	000000dd cputsxy
000024ba l     F .text	0000005e cputhex
000026f4 l     F .text	00000b2c printf
00003ad8 l     O .rodata	00000010 hexDigits
000038a9 l     F .text	00000034 strlen
00003220 l     F .text	00000689 _ntoa
000021ac g     F .text	0000030d main
00000007 g       *ABS*	00000000 __rc5
00000008 g       *ABS*	00000000 __rc6
00000009 g       *ABS*	00000000 __rc7
0000000a g       *ABS*	00000000 __rc8
00000004 g       *ABS*	00000000 __rc2
00000005 g       *ABS*	00000000 __rc3
00000006 g       *ABS*	00000000 __rc4
00002036 g       .text	00000000 __after_main
00002025 g       .text	00000000 __do_init_stack
0000202d g       .text	00000000 __do_zero_bss
0000204e g     F .text	00000013 __zero_bss
00002030 g       .text	00000000 __do_zero_zp_bss
00002061 g     F .text	00000013 __zero_zp_bss
00002044 g     F .text	0000000a __exit_return
00002039 g       .text	00000000 _fini
0000d000 g       *ABS*	00000000 __stack
00000002 g       *ABS*	00000000 __rc0
00000003 g       *ABS*	00000000 __rc1
00003a48 g       .rodata	00000000 __set_v
00003922 g     F .text	000000da __udivmodhi4
000038f0 g     F .text	00000032 __mulhi3
000038dd g     F .text	00000013 __ashlhi3
0000ff81  w      *ABS*	00000000 CINT
0000ff84  w      *ABS*	00000000 IOINIT
0000ff87  w      *ABS*	00000000 RAMTAS
0000ff8a  w      *ABS*	00000000 RESTOR
0000ff8d  w      *ABS*	00000000 VECTOR
0000ff90  w      *ABS*	00000000 SETMSG
0000ff93  w      *ABS*	00000000 SECOND
0000ff96  w      *ABS*	00000000 TKSA
0000ff99  w      *ABS*	00000000 MEMTOP
0000ff9c  w      *ABS*	00000000 MEMBOT
0000ff9f  w      *ABS*	00000000 SCNKEY
0000ffa2  w      *ABS*	00000000 SETTMO
0000ffa5  w      *ABS*	00000000 ACPTR
0000ffa8  w      *ABS*	00000000 CIOUT
0000ffab  w      *ABS*	00000000 UNTLK
0000ffae  w      *ABS*	00000000 UNLSN
0000ffb1  w      *ABS*	00000000 LISTEN
0000ffb4  w      *ABS*	00000000 TALK
0000ffb7  w      *ABS*	00000000 READST
0000ffba  w      *ABS*	00000000 SETLFS
0000ffbd  w      *ABS*	00000000 SETNAM
0000ffc0  w      *ABS*	00000000 OPEN
0000ffc3  w      *ABS*	00000000 CLOSE
0000ffc6  w      *ABS*	00000000 CHKIN
0000ffc9  w      *ABS*	00000000 CKOUT
0000ffc9  w      *ABS*	00000000 CHKOUT
0000ffcc  w      *ABS*	00000000 CLRCH
0000ffcc  w      *ABS*	00000000 CLRCHN
0000ffcf  w      *ABS*	00000000 BASIN
0000ffcf  w      *ABS*	00000000 CHRIN
0000ffd2  w      *ABS*	00000000 BSOUT
0000ffd2  w      *ABS*	00000000 CHROUT
0000ffd5  w      *ABS*	00000000 LOAD
0000ffd8  w      *ABS*	00000000 SAVE
0000ffdb  w      *ABS*	00000000 SETTIM
0000ffde  w      *ABS*	00000000 RDTIM
0000ffe1  w      *ABS*	00000000 STOP
0000ffe4  w      *ABS*	00000000 GETIN
0000ffe7  w      *ABS*	00000000 CLALL
0000ffea  w      *ABS*	00000000 UDTIM
0000ffed  w      *ABS*	00000000 SCREEN
0000fff3  w      *ABS*	00000000 IOBASE
0000ffc6 g       *ABS*	00000000 __CHKIN
0000ffc9 g       *ABS*	00000000 __CKOUT
0000ffc9 g       *ABS*	00000000 __CHKOUT
0000ffcc g       *ABS*	00000000 __CLRCH
0000ffcc g       *ABS*	00000000 __CLRCHN
0000ffcf g       *ABS*	00000000 __BASIN
0000ffcf g       *ABS*	00000000 __CHRIN
0000ffd2 g       *ABS*	00000000 __BSOUT
0000ffd2 g       *ABS*	00000000 __CHROUT
0000ffe1 g       *ABS*	00000000 __STOP
0000ffe4 g       *ABS*	00000000 __GETIN
0000ffe7 g       *ABS*	00000000 __CLALL
0000ffea g       *ABS*	00000000 __UDTIM
0000ff81 g       *ABS*	00000000 __CINT
0000ff84 g       *ABS*	00000000 __IOINIT
0000ff87 g       *ABS*	00000000 __RAMTAS
0000ff8a g       *ABS*	00000000 __RESTOR
0000ff8d g       *ABS*	00000000 __VECTOR
0000ff90 g       *ABS*	00000000 __SETMSG
0000ff93 g       *ABS*	00000000 __SECOND
0000ff96 g       *ABS*	00000000 __TKSA
0000ff99 g       *ABS*	00000000 __MEMTOP
0000ff9c g       *ABS*	00000000 __MEMBOT
0000ff9f g       *ABS*	00000000 __SCNKEY
0000ffa2 g       *ABS*	00000000 __SETTMO
0000ffa5 g       *ABS*	00000000 __ACPTR
0000ffa8 g       *ABS*	00000000 __CIOUT
0000ffab g       *ABS*	00000000 __UNTLK
0000ffae g       *ABS*	00000000 __UNLSN
0000ffb1 g       *ABS*	00000000 __LISTEN
0000ffb4 g       *ABS*	00000000 __TALK
0000ffb7 g       *ABS*	00000000 __READST
0000ffba g       *ABS*	00000000 __SETLFS
0000ffbd g       *ABS*	00000000 __SETNAM
0000ffc0 g       *ABS*	00000000 __OPEN
0000ffc3 g       *ABS*	00000000 __CLOSE
0000ffd5 g       *ABS*	00000000 __LOAD
0000ffd8 g       *ABS*	00000000 __SAVE
0000ffdb g       *ABS*	00000000 __SETTIM
0000ffde g       *ABS*	00000000 __RDTIM
0000ffed g       *ABS*	00000000 __SCREEN
0000fff3 g       *ABS*	00000000 __IOBASE
000039fc  w    F .text	0000002d memcpy
00003a29  w    F .text	0000001f __memset
00002017 g       .text	00000000 _start
00000002 g       *ABS*	00000000 __basic_zp_start
0000000b g       *ABS*	00000000 __rc9
0000000c g       *ABS*	00000000 __rc10
0000000d g       *ABS*	00000000 __rc11
0000000e g       *ABS*	00000000 __rc12
0000000f g       *ABS*	00000000 __rc13
00000010 g       *ABS*	00000000 __rc14
00000011 g       *ABS*	00000000 __rc15
00000012 g       *ABS*	00000000 __rc16
00000013 g       *ABS*	00000000 __rc17
00000014 g       *ABS*	00000000 __rc18
00000015 g       *ABS*	00000000 __rc19
00000016 g       *ABS*	00000000 __rc20
00000017 g       *ABS*	00000000 __rc21
00000018 g       *ABS*	00000000 __rc22
00000019 g       *ABS*	00000000 __rc23
0000001a g       *ABS*	00000000 __rc24
0000001b g       *ABS*	00000000 __rc25
0000001c g       *ABS*	00000000 __rc26
0000001d g       *ABS*	00000000 __rc27
0000001e g       *ABS*	00000000 __rc28
0000001f g       *ABS*	00000000 __rc29
00000020 g       *ABS*	00000000 __rc30
00000021 g       *ABS*	00000000 __rc31
00000090 g       *ABS*	00000000 __basic_zp_end
00000022 g       .zp.data	00000000 __zp_data_start
00002017 g       *ABS*	00000000 __zp_data_load_start
00000000 g       *ABS*	00000000 __zp_data_size
00000022 g       .zp.bss	00000000 __zp_bss_start
00000017 g       *ABS*	00000000 __zp_bss_size
00002017 g       .text	00000000 _init
00003a48 g       .text	00000000 __init_array_start
00003a48 g       .text	00000000 __init_array_end
00003a48 g       .text	00000000 __fini_array_start
00003a48 g       .text	00000000 __fini_array_end
00003ae8 g       .data	00000000 __data_start
00003ae8 g       .data	00000000 __data_end
00003ae8 g       *ABS*	00000000 __data_load_start
00000000 g       *ABS*	00000000 __data_size
00003ae8 g       .bss	00000000 __bss_start
00003de6 g       .bss	00000000 __bss_end
000002fe g       *ABS*	00000000 __bss_size
00003fe5 g       .noinit	00000000 __heap_start

Disassembly of section .text:

00002017 <_start>:
    2017: 78           	sei
    2018: a2 2f        	ldx	#$2f
    201a: 86 00        	stx	$0                      ; 0x0 <__zp_data_size>
    201c: a2 3e        	ldx	#$3e
    201e: 86 01        	stx	$1                      ; 0x1 <__zp_data_size+0x1>
    2020: a2 44        	ldx	#$44
    2022: 8e 30 d0     	stx	$d030                   ; 0xd030 <__heap_start+0x904b>

00002025 <__do_init_stack>:
    2025: a9 00        	lda	#$0
    2027: 85 02        	sta	$2                      ; 0x2 <__rc0>
    2029: a9 d0        	lda	#$d0
    202b: 85 03        	sta	$3                      ; 0x3 <__rc1>

0000202d <__do_zero_bss>:
    202d: 20 4e 20     	jsr	$204e <__zero_bss>

00002030 <__do_zero_zp_bss>:
    2030: 20 61 20     	jsr	$2061 <__zero_zp_bss>
    2033: 20 ac 21     	jsr	$21ac <main>

00002036 <__after_main>:
    2036: 4c 44 20     	jmp	$2044 <__exit_return>

00002039 <_fini>:
    2039: a2 3f        	ldx	#$3f
    203b: 86 01        	stx	$1                      ; 0x1 <__zp_data_size+0x1>
    203d: a2 64        	ldx	#$64
    203f: 8e 30 d0     	stx	$d030                   ; 0xd030 <__heap_start+0x904b>
    2042: 58           	cli
    2043: 60           	rts

00002044 <__exit_return>:
    2044: 8d e6 3d     	sta	$3de6                   ; 0x3de6 <__data_load_start+0x2fe>
    2047: 20 39 20     	jsr	$2039 <_fini>
    204a: ad e6 3d     	lda	$3de6                   ; 0x3de6 <__data_load_start+0x2fe>
    204d: 60           	rts

0000204e <__zero_bss>:
    204e: a2 fe        	ldx	#$fe
    2050: a0 02        	ldy	#$2
    2052: a9 e8        	lda	#$e8
    2054: 85 04        	sta	$4                      ; 0x4 <__rc2>
    2056: a9 3a        	lda	#$3a
    2058: 85 05        	sta	$5                      ; 0x5 <__rc3>
    205a: a9 00        	lda	#$0
    205c: 84 06        	sty	$6                      ; 0x6 <__rc4>
    205e: 4c 29 3a     	jmp	$3a29 <__memset>

00002061 <__zero_zp_bss>:
    2061: a2 17        	ldx	#$17
    2063: a0 00        	ldy	#$0
    2065: a9 22        	lda	#$22
    2067: 85 04        	sta	$4                      ; 0x4 <__rc2>
    2069: a9 00        	lda	#$0
    206b: 85 05        	sta	$5                      ; 0x5 <__rc3>
    206d: a9 00        	lda	#$0
    206f: 84 06        	sty	$6                      ; 0x6 <__rc4>
    2071: 4c 29 3a     	jmp	$3a29 <__memset>

00002074 <cputln>:
    2074: ae e8 3a     	ldx	$3ae8                   ; 0x3ae8 <g_curScreenH>
    2077: 86 06        	stx	$6                      ; 0x6 <__rc4>
    2079: a6 24        	ldx	$24                     ; 0x24 <g_curY>
    207b: a9 00        	lda	#$0
    207d: da           	phx
    207e: 7a           	ply
    207f: c8           	iny
    2080: d0 01        	bne	$2083 <cputln+0xf>
    2082: 1a           	inc
    2083: c9 00        	cmp	#$0
    2085: d0 08        	bne	$208f <cputln+0x1b>
    2087: c4 06        	cpy	$6                      ; 0x6 <__rc4>
    2089: b0 08        	bcs	$2093 <cputln+0x1f>
    208b: e8           	inx
    208c: 4c a7 21     	jmp	$21a7 <cputln+0x133>
    208f: c9 00        	cmp	#$0
    2091: 90 f8        	bcc	$208b <cputln+0x17>
    2093: a6 22        	ldx	$22                     ; 0x22 <g_curScreenW>
    2095: 86 04        	stx	$4                      ; 0x4 <__rc2>
    2097: 86 40        	stx	$40                     ; 0x40 <__rc31+0x1f>
    2099: a2 00        	ldx	#$0
    209b: 64 05        	stz	$5                      ; 0x5 <__rc3>
    209d: a5 06        	lda	$6                      ; 0x6 <__rc4>
    209f: 20 f0 38     	jsr	$38f0 <__mulhi3>
    20a2: 85 44        	sta	$44                     ; 0x44 <__rc31+0x23>
    20a4: 86 43        	stx	$43                     ; 0x43 <__rc31+0x22>
    20a6: ad 63 d0     	lda	$d063                   ; 0xd063 <__heap_start+0x907e>
    20a9: 29 07        	and	#$7
    20ab: a8           	tay
    20ac: ae 62 d0     	ldx	$d062                   ; 0xd062 <__heap_start+0x907d>
    20af: 86 04        	stx	$4                      ; 0x4 <__rc2>
    20b1: ae 61 d0     	ldx	$d061                   ; 0xd061 <__heap_start+0x907c>
    20b4: 86 05        	stx	$5                      ; 0x5 <__rc3>
    20b6: ad 60 d0     	lda	$d060                   ; 0xd060 <__heap_start+0x907b>
    20b9: a6 40        	ldx	$40                     ; 0x40 <__rc31+0x1f>
    20bb: 86 06        	stx	$6                      ; 0x6 <__rc4>
    20bd: 86 40        	stx	$40                     ; 0x40 <__rc31+0x1f>
    20bf: 18           	clc
    20c0: 65 06        	adc	$6                      ; 0x6 <__rc4>
    20c2: 85 0c        	sta	$c                      ; 0xc <__rc10>
    20c4: a5 05        	lda	$5                      ; 0x5 <__rc3>
    20c6: 69 00        	adc	#$0
    20c8: 85 0d        	sta	$d                      ; 0xd <__rc11>
    20ca: a5 04        	lda	$4                      ; 0x4 <__rc2>
    20cc: 69 00        	adc	#$0
    20ce: 85 04        	sta	$4                      ; 0x4 <__rc2>
    20d0: 98           	tya
    20d1: 69 00        	adc	#$0
    20d3: 85 05        	sta	$5                      ; 0x5 <__rc3>
    20d5: ad 63 d0     	lda	$d063                   ; 0xd063 <__heap_start+0x907e>
    20d8: 29 07        	and	#$7
    20da: 85 09        	sta	$9                      ; 0x9 <__rc7>
    20dc: a5 44        	lda	$44                     ; 0x44 <__rc31+0x23>
    20de: 38           	sec
    20df: e5 06        	sbc	$6                      ; 0x6 <__rc4>
    20e1: 85 0a        	sta	$a                      ; 0xa <__rc8>
    20e3: 85 41        	sta	$41                     ; 0x41 <__rc31+0x20>
    20e5: a5 43        	lda	$43                     ; 0x43 <__rc31+0x22>
    20e7: e9 00        	sbc	#$0
    20e9: a2 01        	ldx	#$1
    20eb: b0 02        	bcs	$20ef <cputln+0x7b>
    20ed: a2 00        	ldx	#$0
    20ef: 86 45        	stx	$45                     ; 0x45 <__rc31+0x24>
    20f1: 85 0b        	sta	$b                      ; 0xb <__rc9>
    20f3: 85 42        	sta	$42                     ; 0x42 <__rc31+0x21>
    20f5: ad 62 d0     	lda	$d062                   ; 0xd062 <__heap_start+0x907d>
    20f8: ac 61 d0     	ldy	$d061                   ; 0xd061 <__heap_start+0x907c>
    20fb: ae 60 d0     	ldx	$d060                   ; 0xd060 <__heap_start+0x907b>
    20fe: 86 06        	stx	$6                      ; 0x6 <__rc4>
    2100: 84 07        	sty	$7                      ; 0x7 <__rc5>
    2102: 85 08        	sta	$8                      ; 0x8 <__rc6>
    2104: a6 0d        	ldx	$d                      ; 0xd <__rc11>
    2106: a5 0c        	lda	$c                      ; 0xc <__rc10>
    2108: 20 f5 25     	jsr	$25f5 <lcopy>
    210b: a2 f8        	ldx	#$f8
    210d: a0 0f        	ldy	#$f
    210f: 86 04        	stx	$4                      ; 0x4 <__rc2>
    2111: 84 05        	sty	$5                      ; 0x5 <__rc3>
    2113: 64 06        	stz	$6                      ; 0x6 <__rc4>
    2115: 64 07        	stz	$7                      ; 0x7 <__rc5>
    2117: 86 08        	stx	$8                      ; 0x8 <__rc6>
    2119: 84 09        	sty	$9                      ; 0x9 <__rc7>
    211b: a6 41        	ldx	$41                     ; 0x41 <__rc31+0x20>
    211d: 86 0a        	stx	$a                      ; 0xa <__rc8>
    211f: 86 41        	stx	$41                     ; 0x41 <__rc31+0x20>
    2121: a6 42        	ldx	$42                     ; 0x42 <__rc31+0x21>
    2123: 86 0b        	stx	$b                      ; 0xb <__rc9>
    2125: a2 00        	ldx	#$0
    2127: a5 40        	lda	$40                     ; 0x40 <__rc31+0x1f>
    2129: 20 f5 25     	jsr	$25f5 <lcopy>
    212c: a6 44        	ldx	$44                     ; 0x44 <__rc31+0x23>
    212e: 86 04        	stx	$4                      ; 0x4 <__rc2>
    2130: a6 43        	ldx	$43                     ; 0x43 <__rc31+0x22>
    2132: 86 05        	stx	$5                      ; 0x5 <__rc3>
    2134: ad 63 d0     	lda	$d063                   ; 0xd063 <__heap_start+0x907e>
    2137: 29 07        	and	#$7
    2139: 85 07        	sta	$7                      ; 0x7 <__rc5>
    213b: ae 62 d0     	ldx	$d062                   ; 0xd062 <__heap_start+0x907d>
    213e: 86 08        	stx	$8                      ; 0x8 <__rc6>
    2140: ae 61 d0     	ldx	$d061                   ; 0xd061 <__heap_start+0x907c>
    2143: ad 60 d0     	lda	$d060                   ; 0xd060 <__heap_start+0x907b>
    2146: 18           	clc
    2147: 65 04        	adc	$4                      ; 0x4 <__rc2>
    2149: a8           	tay
    214a: 8a           	txa
    214b: 65 05        	adc	$5                      ; 0x5 <__rc3>
    214d: 85 04        	sta	$4                      ; 0x4 <__rc2>
    214f: a5 08        	lda	$8                      ; 0x8 <__rc6>
    2151: 69 00        	adc	#$0
    2153: 85 06        	sta	$6                      ; 0x6 <__rc4>
    2155: a5 07        	lda	$7                      ; 0x7 <__rc5>
    2157: 69 00        	adc	#$0
    2159: 85 05        	sta	$5                      ; 0x5 <__rc3>
    215b: a6 40        	ldx	$40                     ; 0x40 <__rc31+0x1f>
    215d: 86 07        	stx	$7                      ; 0x7 <__rc5>
    215f: 86 40        	stx	$40                     ; 0x40 <__rc31+0x1f>
    2161: 38           	sec
    2162: 98           	tya
    2163: e5 07        	sbc	$7                      ; 0x7 <__rc5>
    2165: a8           	tay
    2166: a5 04        	lda	$4                      ; 0x4 <__rc2>
    2168: e9 00        	sbc	#$0
    216a: 85 09        	sta	$9                      ; 0x9 <__rc7>
    216c: a5 06        	lda	$6                      ; 0x6 <__rc4>
    216e: e9 00        	sbc	#$0
    2170: 85 04        	sta	$4                      ; 0x4 <__rc2>
    2172: a5 05        	lda	$5                      ; 0x5 <__rc3>
    2174: e9 00        	sbc	#$0
    2176: a2 20        	ldx	#$20
    2178: 85 05        	sta	$5                      ; 0x5 <__rc3>
    217a: 86 06        	stx	$6                      ; 0x6 <__rc4>
    217c: 64 08        	stz	$8                      ; 0x8 <__rc6>
    217e: a6 09        	ldx	$9                      ; 0x9 <__rc7>
    2180: 98           	tya
    2181: 20 80 26     	jsr	$2680 <lfill>
    2184: a6 45        	ldx	$45                     ; 0x45 <__rc31+0x24>
    2186: e0 01        	cpx	#$1
    2188: a9 f8        	lda	#$f8
    218a: e9 00        	sbc	#$0
    218c: 85 04        	sta	$4                      ; 0x4 <__rc2>
    218e: a9 0f        	lda	#$f
    2190: e9 00        	sbc	#$0
    2192: a2 01        	ldx	#$1
    2194: 85 05        	sta	$5                      ; 0x5 <__rc3>
    2196: 86 06        	stx	$6                      ; 0x6 <__rc4>
    2198: a6 40        	ldx	$40                     ; 0x40 <__rc31+0x1f>
    219a: 86 07        	stx	$7                      ; 0x7 <__rc5>
    219c: 64 08        	stz	$8                      ; 0x8 <__rc6>
    219e: a6 42        	ldx	$42                     ; 0x42 <__rc31+0x21>
    21a0: a5 41        	lda	$41                     ; 0x41 <__rc31+0x20>
    21a2: 20 80 26     	jsr	$2680 <lfill>
    21a5: a6 24        	ldx	$24                     ; 0x24 <g_curY>
    21a7: 64 23        	stz	$23                     ; 0x23 <g_curX>
    21a9: 86 24        	stx	$24                     ; 0x24 <g_curY>
    21ab: 60           	rts

000021ac <main>:
    21ac: 18           	clc
    21ad: a5 02        	lda	$2                      ; 0x2 <__rc0>
    21af: 69 fc        	adc	#$fc
    21b1: 85 02        	sta	$2                      ; 0x2 <__rc0>
    21b3: a5 03        	lda	$3                      ; 0x3 <__rc1>
    21b5: 69 ff        	adc	#$ff
    21b7: 85 03        	sta	$3                      ; 0x3 <__rc1>
    21b9: a2 0b        	ldx	#$b
    21bb: 86 25        	stx	$25                     ; 0x25 <dmalist>
    21bd: a2 80        	ldx	#$80
    21bf: 86 26        	stx	$26                     ; 0x26 <dmalist+0x1>
    21c1: 64 27        	stz	$27                     ; 0x27 <dmalist+0x2>
    21c3: a0 81        	ldy	#$81
    21c5: 84 28        	sty	$28                     ; 0x28 <dmalist+0x3>
    21c7: 86 29        	stx	$29                     ; 0x29 <dmalist+0x4>
    21c9: a2 85        	ldx	#$85
    21cb: 86 2a        	stx	$2a                     ; 0x2a <dmalist+0x5>
    21cd: a2 01        	ldx	#$1
    21cf: 86 2b        	stx	$2b                     ; 0x2b <dmalist+0x6>
    21d1: 64 2c        	stz	$2c                     ; 0x2c <dmalist+0x7>
    21d3: 64 36        	stz	$36                     ; 0x36 <dmalist+0x11>
    21d5: 64 2d        	stz	$2d                     ; 0x2d <dmalist+0x8>
    21d7: 64 2e        	stz	$2e                     ; 0x2e <dmalist+0x9>
    21d9: 86 2f        	stx	$2f                     ; 0x2f <dmalist+0xa>
    21db: 64 36        	stz	$36                     ; 0x36 <dmalist+0x11>
    21dd: 64 30        	stz	$30                     ; 0x30 <dmalist+0xb>
    21df: 64 31        	stz	$31                     ; 0x31 <dmalist+0xc>
    21e1: 64 32        	stz	$32                     ; 0x32 <dmalist+0xd>
    21e3: 64 33        	stz	$33                     ; 0x33 <dmalist+0xe>
    21e5: a2 d7        	ldx	#$d7
    21e7: 86 34        	stx	$34                     ; 0x34 <dmalist+0xf>
    21e9: 64 35        	stz	$35                     ; 0x35 <dmalist+0x10>
    21eb: a2 47        	ldx	#$47
    21ed: 8e 2f d0     	stx	$d02f                   ; 0xd02f <__heap_start+0x904a>
    21f0: a0 53        	ldy	#$53
    21f2: 8c 2f d0     	sty	$d02f                   ; 0xd02f <__heap_start+0x904a>
    21f5: a9 41        	lda	#$41
    21f7: 85 00        	sta	$0                      ; 0x0 <__zp_data_size>
    21f9: a9 25        	lda	#$25
    21fb: 85 04        	sta	$4                      ; 0x4 <__rc2>
    21fd: a9 00        	lda	#$0
    21ff: 85 05        	sta	$5                      ; 0x5 <__rc3>
    2201: 9c 02 d7     	stz	$d702                   ; 0xd702 <__heap_start+0x971d>
    2204: 9c 04 d7     	stz	$d704                   ; 0xd704 <__heap_start+0x971f>
    2207: a9 00        	lda	#$0
    2209: 8d 01 d7     	sta	$d701                   ; 0xd701 <__heap_start+0x971c>
    220c: a5 04        	lda	$4                      ; 0x4 <__rc2>
    220e: 85 3f        	sta	$3f                     ; 0x3f <__rc31+0x1e>
    2210: 8d 05 d7     	sta	$d705                   ; 0xd705 <__heap_start+0x9720>
    2213: 8e 2f d0     	stx	$d02f                   ; 0xd02f <__heap_start+0x904a>
    2216: 8c 2f d0     	sty	$d02f                   ; 0xd02f <__heap_start+0x904a>
    2219: ad 5d d0     	lda	$d05d                   ; 0xd05d <__heap_start+0x9078>
    221c: 29 7f        	and	#$7f
    221e: 8d 5d d0     	sta	$d05d                   ; 0xd05d <__heap_start+0x9078>
    2221: 9c 68 d0     	stz	$d068                   ; 0xd068 <__heap_start+0x9083>
    2224: a2 d8        	ldx	#$d8
    2226: 8e 69 d0     	stx	$d069                   ; 0xd069 <__heap_start+0x9084>
    2229: a2 02        	ldx	#$2
    222b: 8e 6a d0     	stx	$d06a                   ; 0xd06a <__heap_start+0x9085>
    222e: a2 28        	ldx	#$28
    2230: ac 31 d0     	ldy	$d031                   ; 0xd031 <__heap_start+0x904c>
    2233: 10 02        	bpl	$2237 <main+0x8b>
    2235: a2 50        	ldx	#$50
    2237: 86 22        	stx	$22                     ; 0x22 <g_curScreenW>
    2239: ad 31 d0     	lda	$d031                   ; 0xd031 <__heap_start+0x904c>
    223c: 29 08        	and	#$8
    223e: f0 04        	beq	$2244 <main+0x98>
    2240: a2 32        	ldx	#$32
    2242: 80 02        	bra	$2246 <main+0x9a>
    2244: a2 19        	ldx	#$19
    2246: 8e e8 3a     	stx	$3ae8                   ; 0x3ae8 <g_curScreenH>
    2249: 80 03        	bra	$224e <main+0xa2>
    224b: 9c 10 d6     	stz	$d610                   ; 0xd610 <__heap_start+0x962b>
    224e: ae 10 d6     	ldx	$d610                   ; 0xd610 <__heap_start+0x962b>
    2251: d0 f8        	bne	$224b <main+0x9f>
    2253: a2 34        	ldx	#$34
    2255: 86 39        	stx	$39                     ; 0x39 <__rc31+0x18>
    2257: a2 03        	ldx	#$3
    2259: 86 3a        	stx	$3a                     ; 0x3a <__rc31+0x19>
    225b: a2 ff        	ldx	#$ff
    225d: a0 e9        	ldy	#$e9
    225f: 84 04        	sty	$4                      ; 0x4 <__rc2>
    2261: a0 3a        	ldy	#$3a
    2263: 84 05        	sty	$5                      ; 0x5 <__rc3>
    2265: a0 01        	ldy	#$1
    2267: a5 04        	lda	$4                      ; 0x4 <__rc2>
    2269: 85 06        	sta	$6                      ; 0x6 <__rc4>
    226b: a5 05        	lda	$5                      ; 0x5 <__rc3>
    226d: 85 07        	sta	$7                      ; 0x7 <__rc5>
    226f: a9 b9        	lda	#$b9
    2271: 91 04        	sta	($4),y                  ; 0x4 <__rc2>
    2273: a9 00        	lda	#$0
    2275: 92 04        	sta	($4),z                  ; 0x4 <__rc2>
    2277: a5 04        	lda	$4                      ; 0x4 <__rc2>
    2279: 18           	clc
    227a: 69 03        	adc	#$3
    227c: 85 04        	sta	$4                      ; 0x4 <__rc2>
    227e: a5 05        	lda	$5                      ; 0x5 <__rc3>
    2280: 69 00        	adc	#$0
    2282: 85 05        	sta	$5                      ; 0x5 <__rc3>
    2284: e6 06        	inc	$6                      ; 0x6 <__rc4>
    2286: d0 02        	bne	$228a <main+0xde>
    2288: e6 07        	inc	$7                      ; 0x7 <__rc5>
    228a: a9 24        	lda	#$24
    228c: 91 06        	sta	($6),y                  ; 0x6 <__rc4>
    228e: ca           	dex
    228f: d0 d6        	bne	$2267 <main+0xbb>
    2291: 9c 68 d0     	stz	$d068                   ; 0xd068 <__heap_start+0x9083>
    2294: a2 d0        	ldx	#$d0
    2296: 8e 69 d0     	stx	$d069                   ; 0xd069 <__heap_start+0x9084>
    2299: a2 02        	ldx	#$2
    229b: 8e 6a d0     	stx	$d06a                   ; 0xd06a <__heap_start+0x9085>
    229e: ad 18 d0     	lda	$d018                   ; 0xd018 <__heap_start+0x9033>
    22a1: 49 02        	eor	#$2
    22a3: 8d 18 d0     	sta	$d018                   ; 0xd018 <__heap_start+0x9033>
    22a6: 80 03        	bra	$22ab <main+0xff>
    22a8: 9c 10 d6     	stz	$d610                   ; 0xd610 <__heap_start+0x962b>
    22ab: ae 10 d6     	ldx	$d610                   ; 0xd610 <__heap_start+0x962b>
    22ae: d0 f8        	bne	$22a8 <main+0xfc>
    22b0: a9 bf        	lda	#$bf
    22b2: 2d 31 d0     	and	$d031                   ; 0xd031 <__heap_start+0x904c>
    22b5: 8d 31 d0     	sta	$d031                   ; 0xd031 <__heap_start+0x904c>
    22b8: a9 bf        	lda	#$bf
    22ba: 2d 54 d0     	and	$d054                   ; 0xd054 <__heap_start+0x906f>
    22bd: 8d 54 d0     	sta	$d054                   ; 0xd054 <__heap_start+0x906f>
    22c0: a2 85        	ldx	#$85
    22c2: 86 3b        	stx	$3b                     ; 0x3b <__rc31+0x1a>
    22c4: a2 3a        	ldx	#$3a
    22c6: 86 3c        	stx	$3c                     ; 0x3c <__rc31+0x1b>
    22c8: a6 22        	ldx	$22                     ; 0x22 <g_curScreenW>
    22ca: ad e8 3a     	lda	$3ae8                   ; 0x3ae8 <g_curScreenH>
    22cd: 86 04        	stx	$4                      ; 0x4 <__rc2>
    22cf: 64 05        	stz	$5                      ; 0x5 <__rc3>
    22d1: a2 00        	ldx	#$0
    22d3: 20 f0 38     	jsr	$38f0 <__mulhi3>
    22d6: a8           	tay
    22d7: ad 54 d0     	lda	$d054                   ; 0xd054 <__heap_start+0x906f>
    22da: 29 01        	and	#$1
    22dc: 85 04        	sta	$4                      ; 0x4 <__rc2>
    22de: 98           	tya
    22df: 20 dd 38     	jsr	$38dd <__ashlhi3>
    22e2: 85 3d        	sta	$3d                     ; 0x3d <__rc31+0x1c>
    22e4: 86 3e        	stx	$3e                     ; 0x3e <__rc31+0x1d>
    22e6: ad 63 d0     	lda	$d063                   ; 0xd063 <__heap_start+0x907e>
    22e9: 29 07        	and	#$7
    22eb: ae 62 d0     	ldx	$d062                   ; 0xd062 <__heap_start+0x907d>
    22ee: ac 61 d0     	ldy	$d061                   ; 0xd061 <__heap_start+0x907c>
    22f1: 84 09        	sty	$9                      ; 0x9 <__rc7>
    22f3: ac 60 d0     	ldy	$d060                   ; 0xd060 <__heap_start+0x907b>
    22f6: 86 04        	stx	$4                      ; 0x4 <__rc2>
    22f8: 85 05        	sta	$5                      ; 0x5 <__rc3>
    22fa: a2 20        	ldx	#$20
    22fc: 86 06        	stx	$6                      ; 0x6 <__rc4>
    22fe: a6 3d        	ldx	$3d                     ; 0x3d <__rc31+0x1c>
    2300: 86 07        	stx	$7                      ; 0x7 <__rc5>
    2302: a6 3e        	ldx	$3e                     ; 0x3e <__rc31+0x1d>
    2304: 86 08        	stx	$8                      ; 0x8 <__rc6>
    2306: a6 09        	ldx	$9                      ; 0x9 <__rc7>
    2308: 98           	tya
    2309: 20 80 26     	jsr	$2680 <lfill>
    230c: a2 0b        	ldx	#$b
    230e: 86 25        	stx	$25                     ; 0x25 <dmalist>
    2310: a2 80        	ldx	#$80
    2312: 86 26        	stx	$26                     ; 0x26 <dmalist+0x1>
    2314: 64 27        	stz	$27                     ; 0x27 <dmalist+0x2>
    2316: e8           	inx
    2317: 86 28        	stx	$28                     ; 0x28 <dmalist+0x3>
    2319: a2 ff        	ldx	#$ff
    231b: 86 29        	stx	$29                     ; 0x29 <dmalist+0x4>
    231d: a2 85        	ldx	#$85
    231f: 86 2a        	stx	$2a                     ; 0x2a <dmalist+0x5>
    2321: a0 01        	ldy	#$1
    2323: 84 2b        	sty	$2b                     ; 0x2b <dmalist+0x6>
    2325: 64 2c        	stz	$2c                     ; 0x2c <dmalist+0x7>
    2327: a2 03        	ldx	#$3
    2329: 86 2d        	stx	$2d                     ; 0x2d <dmalist+0x8>
    232b: 64 36        	stz	$36                     ; 0x36 <dmalist+0x11>
    232d: a6 3d        	ldx	$3d                     ; 0x3d <__rc31+0x1c>
    232f: 86 2e        	stx	$2e                     ; 0x2e <dmalist+0x9>
    2331: a6 3e        	ldx	$3e                     ; 0x3e <__rc31+0x1d>
    2333: 86 2f        	stx	$2f                     ; 0x2f <dmalist+0xa>
    2335: 84 30        	sty	$30                     ; 0x30 <dmalist+0xb>
    2337: 64 31        	stz	$31                     ; 0x31 <dmalist+0xc>
    2339: 64 33        	stz	$33                     ; 0x33 <dmalist+0xe>
    233b: 64 34        	stz	$34                     ; 0x34 <dmalist+0xf>
    233d: a2 08        	ldx	#$8
    233f: 86 35        	stx	$35                     ; 0x35 <dmalist+0x10>
    2341: a2 47        	ldx	#$47
    2343: 8e 2f d0     	stx	$d02f                   ; 0xd02f <__heap_start+0x904a>
    2346: a2 53        	ldx	#$53
    2348: 8e 2f d0     	stx	$d02f                   ; 0xd02f <__heap_start+0x904a>
    234b: a2 41        	ldx	#$41
    234d: 86 00        	stx	$0                      ; 0x0 <__zp_data_size>
    234f: 9c 02 d7     	stz	$d702                   ; 0xd702 <__heap_start+0x971d>
    2352: 9c 04 d7     	stz	$d704                   ; 0xd704 <__heap_start+0x971f>
    2355: a2 00        	ldx	#$0
    2357: 8e 01 d7     	stx	$d701                   ; 0xd701 <__heap_start+0x971c>
    235a: a6 3f        	ldx	$3f                     ; 0x3f <__rc31+0x1e>
    235c: 8e 05 d7     	stx	$d705                   ; 0xd705 <__heap_start+0x9720>
    235f: 64 23        	stz	$23                     ; 0x23 <g_curX>
    2361: 64 24        	stz	$24                     ; 0x24 <g_curY>
    2363: a2 34        	ldx	#$34
    2365: 86 04        	stx	$4                      ; 0x4 <__rc2>
    2367: a2 03        	ldx	#$3
    2369: 86 05        	stx	$5                      ; 0x5 <__rc3>
    236b: 80 21        	bra	$238e <main+0x1e2>
    236d: c9 60        	cmp	#$60
    236f: 90 05        	bcc	$2376 <main+0x1ca>
    2371: 18           	clc
    2372: 69 a0        	adc	#$a0
    2374: 80 0d        	bra	$2383 <main+0x1d7>
    2376: 18           	clc
    2377: a8           	tay
    2378: 69 a5        	adc	#$a5
    237a: aa           	tax
    237b: 98           	tya
    237c: e0 05        	cpx	#$5
    237e: b0 03        	bcs	$2383 <main+0x1d7>
    2380: bd d3 3a     	lda	$3ad3,x                 ; 0x3ad3 <__set_v+0x8b>
    2383: 92 04        	sta	($4),z                  ; 0x4 <__rc2>
    2385: e6 04        	inc	$4                      ; 0x4 <__rc2>
    2387: d0 02        	bne	$238b <main+0x1df>
    2389: e6 05        	inc	$5                      ; 0x5 <__rc3>
    238b: aa           	tax
    238c: f0 10        	beq	$239e <main+0x1f2>
    238e: b2 3b        	lda	($3b),z                 ; 0x3b <__rc31+0x1a>
    2390: e6 3b        	inc	$3b                     ; 0x3b <__rc31+0x1a>
    2392: d0 02        	bne	$2396 <main+0x1ea>
    2394: e6 3c        	inc	$3c                     ; 0x3c <__rc31+0x1b>
    2396: c9 c0        	cmp	#$c0
    2398: 90 d3        	bcc	$236d <main+0x1c1>
    239a: 49 80        	eor	#$80
    239c: 80 e5        	bra	$2383 <main+0x1d7>
    239e: a5 23        	lda	$23                     ; 0x23 <g_curX>
    23a0: a6 24        	ldx	$24                     ; 0x24 <g_curY>
    23a2: a0 34        	ldy	#$34
    23a4: 84 04        	sty	$4                      ; 0x4 <__rc2>
    23a6: a0 03        	ldy	#$3
    23a8: 84 05        	sty	$5                      ; 0x5 <__rc3>
    23aa: 20 18 25     	jsr	$2518 <cputsxy>
    23ad: a2 08        	ldx	#$8
    23af: 64 04        	stz	$4                      ; 0x4 <__rc2>
    23b1: 64 05        	stz	$5                      ; 0x5 <__rc3>
    23b3: a9 00        	lda	#$0
    23b5: 20 ba 24     	jsr	$24ba <cputhex>
    23b8: a5 23        	lda	$23                     ; 0x23 <g_curX>
    23ba: a6 24        	ldx	$24                     ; 0x24 <g_curY>
    23bc: a0 9f        	ldy	#$9f
    23be: 84 04        	sty	$4                      ; 0x4 <__rc2>
    23c0: a0 3a        	ldy	#$3a
    23c2: 84 05        	sty	$5                      ; 0x5 <__rc3>
    23c4: 20 18 25     	jsr	$2518 <cputsxy>
    23c7: a2 d7        	ldx	#$d7
    23c9: 64 04        	stz	$4                      ; 0x4 <__rc2>
    23cb: 64 05        	stz	$5                      ; 0x5 <__rc3>
    23cd: a9 00        	lda	#$0
    23cf: 20 ba 24     	jsr	$24ba <cputhex>
    23d2: 20 74 20     	jsr	$2074 <cputln>
    23d5: a0 01        	ldy	#$1
    23d7: a9 d7        	lda	#$d7
    23d9: 91 02        	sta	($2),y                  ; 0x2 <__rc0>
    23db: a9 00        	lda	#$0
    23dd: 92 02        	sta	($2),z                  ; 0x2 <__rc0>
    23df: c8           	iny
    23e0: 91 02        	sta	($2),y                  ; 0x2 <__rc0>
    23e2: c8           	iny
    23e3: a9 08        	lda	#$8
    23e5: 91 02        	sta	($2),y                  ; 0x2 <__rc0>
    23e7: 20 f4 26     	jsr	$26f4 <printf>
    23ea: 20 74 20     	jsr	$2074 <cputln>
    23ed: ae 10 d6     	ldx	$d610                   ; 0xd610 <__heap_start+0x962b>
    23f0: f0 fb        	beq	$23ed <main+0x241>
    23f2: a2 c0        	ldx	#$c0
    23f4: 86 04        	stx	$4                      ; 0x4 <__rc2>
    23f6: a2 3a        	ldx	#$3a
    23f8: 86 05        	stx	$5                      ; 0x5 <__rc3>
    23fa: 9c 10 d6     	stz	$d610                   ; 0xd610 <__heap_start+0x962b>
    23fd: a2 34        	ldx	#$34
    23ff: 86 06        	stx	$6                      ; 0x6 <__rc4>
    2401: a2 03        	ldx	#$3
    2403: 86 07        	stx	$7                      ; 0x7 <__rc5>
    2405: 80 21        	bra	$2428 <main+0x27c>
    2407: c9 60        	cmp	#$60
    2409: 90 05        	bcc	$2410 <main+0x264>
    240b: 18           	clc
    240c: 69 a0        	adc	#$a0
    240e: 80 0d        	bra	$241d <main+0x271>
    2410: 18           	clc
    2411: a8           	tay
    2412: 69 a5        	adc	#$a5
    2414: aa           	tax
    2415: 98           	tya
    2416: e0 05        	cpx	#$5
    2418: b0 03        	bcs	$241d <main+0x271>
    241a: bd d3 3a     	lda	$3ad3,x                 ; 0x3ad3 <__set_v+0x8b>
    241d: 92 06        	sta	($6),z                  ; 0x6 <__rc4>
    241f: e6 06        	inc	$6                      ; 0x6 <__rc4>
    2421: d0 02        	bne	$2425 <main+0x279>
    2423: e6 07        	inc	$7                      ; 0x7 <__rc5>
    2425: aa           	tax
    2426: f0 10        	beq	$2438 <main+0x28c>
    2428: b2 04        	lda	($4),z                  ; 0x4 <__rc2>
    242a: e6 04        	inc	$4                      ; 0x4 <__rc2>
    242c: d0 02        	bne	$2430 <main+0x284>
    242e: e6 05        	inc	$5                      ; 0x5 <__rc3>
    2430: c9 c0        	cmp	#$c0
    2432: 90 d3        	bcc	$2407 <main+0x25b>
    2434: 49 80        	eor	#$80
    2436: 80 e5        	bra	$241d <main+0x271>
    2438: a5 23        	lda	$23                     ; 0x23 <g_curX>
    243a: a6 24        	ldx	$24                     ; 0x24 <g_curY>
    243c: a0 34        	ldy	#$34
    243e: 84 04        	sty	$4                      ; 0x4 <__rc2>
    2440: a0 03        	ldy	#$3
    2442: 84 05        	sty	$5                      ; 0x5 <__rc3>
    2444: 20 18 25     	jsr	$2518 <cputsxy>
    2447: 20 74 20     	jsr	$2074 <cputln>
    244a: ae 10 d6     	ldx	$d610                   ; 0xd610 <__heap_start+0x962b>
    244d: f0 fb        	beq	$244a <main+0x29e>
    244f: 9c 10 d6     	stz	$d610                   ; 0xd610 <__heap_start+0x962b>
    2452: ae 10 d6     	ldx	$d610                   ; 0xd610 <__heap_start+0x962b>
    2455: d0 f8        	bne	$244f <main+0x2a3>
    2457: a2 0b        	ldx	#$b
    2459: 86 25        	stx	$25                     ; 0x25 <dmalist>
    245b: a2 80        	ldx	#$80
    245d: 86 26        	stx	$26                     ; 0x26 <dmalist+0x1>
    245f: 86 27        	stx	$27                     ; 0x27 <dmalist+0x2>
    2461: e8           	inx
    2462: 86 28        	stx	$28                     ; 0x28 <dmalist+0x3>
    2464: 64 29        	stz	$29                     ; 0x29 <dmalist+0x4>
    2466: a2 85        	ldx	#$85
    2468: 86 2a        	stx	$2a                     ; 0x2a <dmalist+0x5>
    246a: a2 01        	ldx	#$1
    246c: 86 2b        	stx	$2b                     ; 0x2b <dmalist+0x6>
    246e: 64 2c        	stz	$2c                     ; 0x2c <dmalist+0x7>
    2470: 64 36        	stz	$36                     ; 0x36 <dmalist+0x11>
    2472: 64 2d        	stz	$2d                     ; 0x2d <dmalist+0x8>
    2474: 64 2e        	stz	$2e                     ; 0x2e <dmalist+0x9>
    2476: 86 2f        	stx	$2f                     ; 0x2f <dmalist+0xa>
    2478: 64 36        	stz	$36                     ; 0x36 <dmalist+0x11>
    247a: 64 30        	stz	$30                     ; 0x30 <dmalist+0xb>
    247c: a2 d7        	ldx	#$d7
    247e: 86 31        	stx	$31                     ; 0x31 <dmalist+0xc>
    2480: 64 32        	stz	$32                     ; 0x32 <dmalist+0xd>
    2482: 64 33        	stz	$33                     ; 0x33 <dmalist+0xe>
    2484: 64 34        	stz	$34                     ; 0x34 <dmalist+0xf>
    2486: 64 35        	stz	$35                     ; 0x35 <dmalist+0x10>
    2488: a2 47        	ldx	#$47
    248a: 8e 2f d0     	stx	$d02f                   ; 0xd02f <__heap_start+0x904a>
    248d: a2 53        	ldx	#$53
    248f: 8e 2f d0     	stx	$d02f                   ; 0xd02f <__heap_start+0x904a>
    2492: a2 41        	ldx	#$41
    2494: 86 00        	stx	$0                      ; 0x0 <__zp_data_size>
    2496: 9c 02 d7     	stz	$d702                   ; 0xd702 <__heap_start+0x971d>
    2499: 9c 04 d7     	stz	$d704                   ; 0xd704 <__heap_start+0x971f>
    249c: a2 00        	ldx	#$0
    249e: 8e 01 d7     	stx	$d701                   ; 0xd701 <__heap_start+0x971c>
    24a1: a6 3f        	ldx	$3f                     ; 0x3f <__rc31+0x1e>
    24a3: 8e 05 d7     	stx	$d705                   ; 0xd705 <__heap_start+0x9720>
    24a6: a2 00        	ldx	#$0
    24a8: 8a           	txa
    24a9: 48           	pha
    24aa: 18           	clc
    24ab: a5 02        	lda	$2                      ; 0x2 <__rc0>
    24ad: 69 04        	adc	#$4
    24af: 85 02        	sta	$2                      ; 0x2 <__rc0>
    24b1: a5 03        	lda	$3                      ; 0x3 <__rc1>
    24b3: 69 00        	adc	#$0
    24b5: 85 03        	sta	$3                      ; 0x3 <__rc1>
    24b7: 68           	pla
    24b8: 60           	rts

000024b9 <escNOP>:
    24b9: 60           	rts

000024ba <cputhex>:
    24ba: 85 07        	sta	$7                      ; 0x7 <__rc5>
    24bc: 18           	clc
    24bd: a9 40        	lda	#$40
    24bf: 69 04        	adc	#$4
    24c1: 85 04        	sta	$4                      ; 0x4 <__rc2>
    24c3: a9 00        	lda	#$0
    24c5: 69 00        	adc	#$0
    24c7: 85 05        	sta	$5                      ; 0x5 <__rc3>
    24c9: 8a           	txa
    24ca: 86 06        	stx	$6                      ; 0x6 <__rc4>
    24cc: 29 0f        	and	#$f
    24ce: 85 08        	sta	$8                      ; 0x8 <__rc6>
    24d0: a5 07        	lda	$7                      ; 0x7 <__rc5>
    24d2: 4a           	lsr
    24d3: 4a           	lsr
    24d4: 4a           	lsr
    24d5: 4a           	lsr
    24d6: 29 0f        	and	#$f
    24d8: a8           	tay
    24d9: 46 06        	lsr	$6                      ; 0x6 <__rc4>
    24db: 46 06        	lsr	$6                      ; 0x6 <__rc4>
    24dd: 46 06        	lsr	$6                      ; 0x6 <__rc4>
    24df: 46 06        	lsr	$6                      ; 0x6 <__rc4>
    24e1: a6 06        	ldx	$6                      ; 0x6 <__rc4>
    24e3: bd d8 3a     	lda	$3ad8,x                 ; 0x3ad8 <hexDigits>
    24e6: aa           	tax
    24e7: a9 30        	lda	#$30
    24e9: 85 41        	sta	$41                     ; 0x41 <__rc31+0x20>
    24eb: 85 42        	sta	$42                     ; 0x42 <__rc31+0x21>
    24ed: 85 43        	sta	$43                     ; 0x43 <__rc31+0x22>
    24ef: 86 45        	stx	$45                     ; 0x45 <__rc31+0x24>
    24f1: a6 08        	ldx	$8                      ; 0x8 <__rc6>
    24f3: bd d8 3a     	lda	$3ad8,x                 ; 0x3ad8 <hexDigits>
    24f6: aa           	tax
    24f7: 86 46        	stx	$46                     ; 0x46 <__rc31+0x25>
    24f9: be d8 3a     	ldx	$3ad8,y                 ; 0x3ad8 <hexDigits>
    24fc: 86 47        	stx	$47                     ; 0x47 <__rc31+0x26>
    24fe: a2 24        	ldx	#$24
    2500: 86 40        	stx	$40                     ; 0x40 <__rc31+0x1f>
    2502: a5 07        	lda	$7                      ; 0x7 <__rc5>
    2504: 29 0f        	and	#$f
    2506: a8           	tay
    2507: b9 d8 3a     	lda	$3ad8,y                 ; 0x3ad8 <hexDigits>
    250a: a8           	tay
    250b: 84 48        	sty	$48                     ; 0x48 <__rc31+0x27>
    250d: 64 49        	stz	$49                     ; 0x49 <__rc31+0x28>
    250f: 86 44        	stx	$44                     ; 0x44 <__rc31+0x23>
    2511: a5 23        	lda	$23                     ; 0x23 <g_curX>
    2513: a6 24        	ldx	$24                     ; 0x24 <g_curY>
    2515: 4c 18 25     	jmp	$2518 <cputsxy>

00002518 <cputsxy>:
    2518: 85 50        	sta	$50                     ; 0x50 <__rc31+0x2f>
    251a: 86 4f        	stx	$4f                     ; 0x4f <__rc31+0x2e>
    251c: a6 04        	ldx	$4                      ; 0x4 <__rc2>
    251e: 86 06        	stx	$6                      ; 0x6 <__rc4>
    2520: a6 05        	ldx	$5                      ; 0x5 <__rc3>
    2522: 86 07        	stx	$7                      ; 0x7 <__rc5>
    2524: a6 06        	ldx	$6                      ; 0x6 <__rc4>
    2526: 86 4d        	stx	$4d                     ; 0x4d <__rc31+0x2c>
    2528: a6 07        	ldx	$7                      ; 0x7 <__rc5>
    252a: 86 4e        	stx	$4e                     ; 0x4e <__rc31+0x2d>
    252c: 20 a9 38     	jsr	$38a9 <strlen>
    252f: 85 4c        	sta	$4c                     ; 0x4c <__rc31+0x2b>
    2531: a5 22        	lda	$22                     ; 0x22 <g_curScreenW>
    2533: a6 4f        	ldx	$4f                     ; 0x4f <__rc31+0x2e>
    2535: 86 04        	stx	$4                      ; 0x4 <__rc2>
    2537: 64 05        	stz	$5                      ; 0x5 <__rc3>
    2539: a2 00        	ldx	#$0
    253b: 20 f0 38     	jsr	$38f0 <__mulhi3>
    253e: 86 05        	stx	$5                      ; 0x5 <__rc3>
    2540: a6 50        	ldx	$50                     ; 0x50 <__rc31+0x2f>
    2542: 86 04        	stx	$4                      ; 0x4 <__rc2>
    2544: 18           	clc
    2545: 65 04        	adc	$4                      ; 0x4 <__rc2>
    2547: a8           	tay
    2548: 85 52        	sta	$52                     ; 0x52 <__rc31+0x31>
    254a: a5 05        	lda	$5                      ; 0x5 <__rc3>
    254c: 69 00        	adc	#$0
    254e: 85 51        	sta	$51                     ; 0x51 <__rc31+0x30>
    2550: ad 63 d0     	lda	$d063                   ; 0xd063 <__heap_start+0x907e>
    2553: 29 07        	and	#$7
    2555: 85 07        	sta	$7                      ; 0x7 <__rc5>
    2557: ae 62 d0     	ldx	$d062                   ; 0xd062 <__heap_start+0x907d>
    255a: 86 06        	stx	$6                      ; 0x6 <__rc4>
    255c: ae 61 d0     	ldx	$d061                   ; 0xd061 <__heap_start+0x907c>
    255f: 86 04        	stx	$4                      ; 0x4 <__rc2>
    2561: 98           	tya
    2562: 18           	clc
    2563: 69 00        	adc	#$0
    2565: 85 08        	sta	$8                      ; 0x8 <__rc6>
    2567: a6 51        	ldx	$51                     ; 0x51 <__rc31+0x30>
    2569: 8a           	txa
    256a: 65 04        	adc	$4                      ; 0x4 <__rc2>
    256c: 85 09        	sta	$9                      ; 0x9 <__rc7>
    256e: a5 06        	lda	$6                      ; 0x6 <__rc4>
    2570: 69 00        	adc	#$0
    2572: 85 05        	sta	$5                      ; 0x5 <__rc3>
    2574: a5 07        	lda	$7                      ; 0x7 <__rc5>
    2576: 69 00        	adc	#$0
    2578: a8           	tay
    2579: ae 60 d0     	ldx	$d060                   ; 0xd060 <__heap_start+0x907b>
    257c: 86 04        	stx	$4                      ; 0x4 <__rc2>
    257e: 18           	clc
    257f: a5 08        	lda	$8                      ; 0x8 <__rc6>
    2581: 65 04        	adc	$4                      ; 0x4 <__rc2>
    2583: 85 06        	sta	$6                      ; 0x6 <__rc4>
    2585: a5 09        	lda	$9                      ; 0x9 <__rc7>
    2587: 69 00        	adc	#$0
    2589: 85 07        	sta	$7                      ; 0x7 <__rc5>
    258b: a5 05        	lda	$5                      ; 0x5 <__rc3>
    258d: 69 00        	adc	#$0
    258f: 85 08        	sta	$8                      ; 0x8 <__rc6>
    2591: 98           	tya
    2592: 69 00        	adc	#$0
    2594: 64 04        	stz	$4                      ; 0x4 <__rc2>
    2596: 64 05        	stz	$5                      ; 0x5 <__rc3>
    2598: 85 09        	sta	$9                      ; 0x9 <__rc7>
    259a: a6 4c        	ldx	$4c                     ; 0x4c <__rc31+0x2b>
    259c: 86 0a        	stx	$a                      ; 0xa <__rc8>
    259e: 64 0b        	stz	$b                      ; 0xb <__rc9>
    25a0: a6 4d        	ldx	$4d                     ; 0x4d <__rc31+0x2c>
    25a2: 86 0c        	stx	$c                      ; 0xc <__rc10>
    25a4: a6 4e        	ldx	$4e                     ; 0x4e <__rc31+0x2d>
    25a6: a5 0c        	lda	$c                      ; 0xc <__rc10>
    25a8: 20 f5 25     	jsr	$25f5 <lcopy>
    25ab: a2 f8        	ldx	#$f8
    25ad: a0 0f        	ldy	#$f
    25af: a9 01        	lda	#$1
    25b1: 86 04        	stx	$4                      ; 0x4 <__rc2>
    25b3: 84 05        	sty	$5                      ; 0x5 <__rc3>
    25b5: 85 06        	sta	$6                      ; 0x6 <__rc4>
    25b7: a6 4c        	ldx	$4c                     ; 0x4c <__rc31+0x2b>
    25b9: 86 07        	stx	$7                      ; 0x7 <__rc5>
    25bb: 64 08        	stz	$8                      ; 0x8 <__rc6>
    25bd: a6 51        	ldx	$51                     ; 0x51 <__rc31+0x30>
    25bf: a5 52        	lda	$52                     ; 0x52 <__rc31+0x31>
    25c1: 20 80 26     	jsr	$2680 <lfill>
    25c4: a5 4c        	lda	$4c                     ; 0x4c <__rc31+0x2b>
    25c6: a6 50        	ldx	$50                     ; 0x50 <__rc31+0x2f>
    25c8: 86 04        	stx	$4                      ; 0x4 <__rc2>
    25ca: 18           	clc
    25cb: 65 04        	adc	$4                      ; 0x4 <__rc2>
    25cd: 85 08        	sta	$8                      ; 0x8 <__rc6>
    25cf: a9 00        	lda	#$0
    25d1: 69 00        	adc	#$0
    25d3: a6 22        	ldx	$22                     ; 0x22 <g_curScreenW>
    25d5: a0 4a        	ldy	#$4a
    25d7: 84 06        	sty	$6                      ; 0x6 <__rc4>
    25d9: a0 00        	ldy	#$0
    25db: 84 07        	sty	$7                      ; 0x7 <__rc5>
    25dd: 64 05        	stz	$5                      ; 0x5 <__rc3>
    25df: 86 04        	stx	$4                      ; 0x4 <__rc2>
    25e1: aa           	tax
    25e2: a5 08        	lda	$8                      ; 0x8 <__rc6>
    25e4: 20 22 39     	jsr	$3922 <__udivmodhi4>
    25e7: a6 4a        	ldx	$4a                     ; 0x4a <__rc31+0x29>
    25e9: 18           	clc
    25ea: a4 4f        	ldy	$4f                     ; 0x4f <__rc31+0x2e>
    25ec: 84 04        	sty	$4                      ; 0x4 <__rc2>
    25ee: 65 04        	adc	$4                      ; 0x4 <__rc2>
    25f0: 85 24        	sta	$24                     ; 0x24 <g_curY>
    25f2: 86 23        	stx	$23                     ; 0x23 <g_curX>
    25f4: 60           	rts

000025f5 <lcopy>:
    25f5: 85 0c        	sta	$c                      ; 0xc <__rc10>
    25f7: 86 0d        	stx	$d                      ; 0xd <__rc11>
    25f9: a6 0a        	ldx	$a                      ; 0xa <__rc8>
    25fb: a4 0b        	ldy	$b                      ; 0xb <__rc9>
    25fd: a9 0b        	lda	#$b
    25ff: 85 25        	sta	$25                     ; 0x25 <dmalist>
    2601: a9 80        	lda	#$80
    2603: 85 26        	sta	$26                     ; 0x26 <dmalist+0x1>
    2605: 46 05        	lsr	$5                      ; 0x5 <__rc3>
    2607: a5 04        	lda	$4                      ; 0x4 <__rc2>
    2609: 6a           	ror
    260a: 46 05        	lsr	$5                      ; 0x5 <__rc3>
    260c: 6a           	ror
    260d: 46 05        	lsr	$5                      ; 0x5 <__rc3>
    260f: 6a           	ror
    2610: 46 05        	lsr	$5                      ; 0x5 <__rc3>
    2612: 6a           	ror
    2613: 85 27        	sta	$27                     ; 0x27 <dmalist+0x2>
    2615: a9 81        	lda	#$81
    2617: 85 28        	sta	$28                     ; 0x28 <dmalist+0x3>
    2619: 46 09        	lsr	$9                      ; 0x9 <__rc7>
    261b: a5 08        	lda	$8                      ; 0x8 <__rc6>
    261d: 6a           	ror
    261e: 46 09        	lsr	$9                      ; 0x9 <__rc7>
    2620: 6a           	ror
    2621: 46 09        	lsr	$9                      ; 0x9 <__rc7>
    2623: 6a           	ror
    2624: 46 09        	lsr	$9                      ; 0x9 <__rc7>
    2626: 6a           	ror
    2627: 85 29        	sta	$29                     ; 0x29 <dmalist+0x4>
    2629: a9 85        	lda	#$85
    262b: 85 2a        	sta	$2a                     ; 0x2a <dmalist+0x5>
    262d: a9 01        	lda	#$1
    262f: 85 2b        	sta	$2b                     ; 0x2b <dmalist+0x6>
    2631: 64 2c        	stz	$2c                     ; 0x2c <dmalist+0x7>
    2633: 64 36        	stz	$36                     ; 0x36 <dmalist+0x11>
    2635: 64 2d        	stz	$2d                     ; 0x2d <dmalist+0x8>
    2637: 86 2e        	stx	$2e                     ; 0x2e <dmalist+0x9>
    2639: 84 2f        	sty	$2f                     ; 0x2f <dmalist+0xa>
    263b: 64 36        	stz	$36                     ; 0x36 <dmalist+0x11>
    263d: a6 0c        	ldx	$c                      ; 0xc <__rc10>
    263f: 86 30        	stx	$30                     ; 0x30 <dmalist+0xb>
    2641: a6 0d        	ldx	$d                      ; 0xd <__rc11>
    2643: 86 31        	stx	$31                     ; 0x31 <dmalist+0xc>
    2645: a5 04        	lda	$4                      ; 0x4 <__rc2>
    2647: 29 0f        	and	#$f
    2649: 85 32        	sta	$32                     ; 0x32 <dmalist+0xd>
    264b: a6 06        	ldx	$6                      ; 0x6 <__rc4>
    264d: 86 33        	stx	$33                     ; 0x33 <dmalist+0xe>
    264f: a2 00        	ldx	#$0
    2651: a0 25        	ldy	#$25
    2653: 84 04        	sty	$4                      ; 0x4 <__rc2>
    2655: a0 00        	ldy	#$0
    2657: 84 05        	sty	$5                      ; 0x5 <__rc3>
    2659: a4 07        	ldy	$7                      ; 0x7 <__rc5>
    265b: 84 34        	sty	$34                     ; 0x34 <dmalist+0xf>
    265d: a4 04        	ldy	$4                      ; 0x4 <__rc2>
    265f: a5 08        	lda	$8                      ; 0x8 <__rc6>
    2661: 29 0f        	and	#$f
    2663: 85 35        	sta	$35                     ; 0x35 <dmalist+0x10>
    2665: a9 47        	lda	#$47
    2667: 8d 2f d0     	sta	$d02f                   ; 0xd02f <__heap_start+0x904a>
    266a: a9 53        	lda	#$53
    266c: 8d 2f d0     	sta	$d02f                   ; 0xd02f <__heap_start+0x904a>
    266f: a9 41        	lda	#$41
    2671: 85 00        	sta	$0                      ; 0x0 <__zp_data_size>
    2673: 9c 02 d7     	stz	$d702                   ; 0xd702 <__heap_start+0x971d>
    2676: 9c 04 d7     	stz	$d704                   ; 0xd704 <__heap_start+0x971f>
    2679: 8e 01 d7     	stx	$d701                   ; 0xd701 <__heap_start+0x971c>
    267c: 8c 05 d7     	sty	$d705                   ; 0xd705 <__heap_start+0x9720>
    267f: 60           	rts

00002680 <lfill>:
    2680: 85 09        	sta	$9                      ; 0x9 <__rc7>
    2682: 86 0a        	stx	$a                      ; 0xa <__rc8>
    2684: a6 07        	ldx	$7                      ; 0x7 <__rc5>
    2686: a4 08        	ldy	$8                      ; 0x8 <__rc6>
    2688: a9 0b        	lda	#$b
    268a: 85 25        	sta	$25                     ; 0x25 <dmalist>
    268c: a9 80        	lda	#$80
    268e: 85 26        	sta	$26                     ; 0x26 <dmalist+0x1>
    2690: 64 27        	stz	$27                     ; 0x27 <dmalist+0x2>
    2692: 1a           	inc
    2693: 85 28        	sta	$28                     ; 0x28 <dmalist+0x3>
    2695: 46 05        	lsr	$5                      ; 0x5 <__rc3>
    2697: a5 04        	lda	$4                      ; 0x4 <__rc2>
    2699: 6a           	ror
    269a: 46 05        	lsr	$5                      ; 0x5 <__rc3>
    269c: 6a           	ror
    269d: 46 05        	lsr	$5                      ; 0x5 <__rc3>
    269f: 6a           	ror
    26a0: 46 05        	lsr	$5                      ; 0x5 <__rc3>
    26a2: 6a           	ror
    26a3: 85 29        	sta	$29                     ; 0x29 <dmalist+0x4>
    26a5: a9 85        	lda	#$85
    26a7: 85 2a        	sta	$2a                     ; 0x2a <dmalist+0x5>
    26a9: a9 01        	lda	#$1
    26ab: 85 2b        	sta	$2b                     ; 0x2b <dmalist+0x6>
    26ad: 64 2c        	stz	$2c                     ; 0x2c <dmalist+0x7>
    26af: a9 03        	lda	#$3
    26b1: 85 2d        	sta	$2d                     ; 0x2d <dmalist+0x8>
    26b3: 64 36        	stz	$36                     ; 0x36 <dmalist+0x11>
    26b5: 86 2e        	stx	$2e                     ; 0x2e <dmalist+0x9>
    26b7: 84 2f        	sty	$2f                     ; 0x2f <dmalist+0xa>
    26b9: a6 06        	ldx	$6                      ; 0x6 <__rc4>
    26bb: 86 30        	stx	$30                     ; 0x30 <dmalist+0xb>
    26bd: 64 31        	stz	$31                     ; 0x31 <dmalist+0xc>
    26bf: a6 09        	ldx	$9                      ; 0x9 <__rc7>
    26c1: 86 33        	stx	$33                     ; 0x33 <dmalist+0xe>
    26c3: a2 00        	ldx	#$0
    26c5: a0 25        	ldy	#$25
    26c7: 84 06        	sty	$6                      ; 0x6 <__rc4>
    26c9: a0 00        	ldy	#$0
    26cb: 84 07        	sty	$7                      ; 0x7 <__rc5>
    26cd: a4 0a        	ldy	$a                      ; 0xa <__rc8>
    26cf: 84 34        	sty	$34                     ; 0x34 <dmalist+0xf>
    26d1: a4 06        	ldy	$6                      ; 0x6 <__rc4>
    26d3: a5 04        	lda	$4                      ; 0x4 <__rc2>
    26d5: 29 0f        	and	#$f
    26d7: 85 35        	sta	$35                     ; 0x35 <dmalist+0x10>
    26d9: a9 47        	lda	#$47
    26db: 8d 2f d0     	sta	$d02f                   ; 0xd02f <__heap_start+0x904a>
    26de: a9 53        	lda	#$53
    26e0: 8d 2f d0     	sta	$d02f                   ; 0xd02f <__heap_start+0x904a>
    26e3: a9 41        	lda	#$41
    26e5: 85 00        	sta	$0                      ; 0x0 <__zp_data_size>
    26e7: 9c 02 d7     	stz	$d702                   ; 0xd702 <__heap_start+0x971d>
    26ea: 9c 04 d7     	stz	$d704                   ; 0xd704 <__heap_start+0x971f>
    26ed: 8e 01 d7     	stx	$d701                   ; 0xd701 <__heap_start+0x971c>
    26f0: 8c 05 d7     	sty	$d705                   ; 0xd705 <__heap_start+0x9720>
    26f3: 60           	rts

000026f4 <printf>:
    26f4: 64 06        	stz	$6                      ; 0x6 <__rc4>
    26f6: a2 a1        	ldx	#$a1
    26f8: 86 40        	stx	$40                     ; 0x40 <__rc31+0x1f>
    26fa: a2 3a        	ldx	#$3a
    26fc: 86 41        	stx	$41                     ; 0x41 <__rc31+0x20>
    26fe: 18           	clc
    26ff: a6 02        	ldx	$2                      ; 0x2 <__rc0>
    2701: 86 50        	stx	$50                     ; 0x50 <__rc31+0x2f>
    2703: a6 03        	ldx	$3                      ; 0x3 <__rc1>
    2705: 86 51        	stx	$51                     ; 0x51 <__rc31+0x30>
    2707: a6 50        	ldx	$50                     ; 0x50 <__rc31+0x2f>
    2709: 86 04        	stx	$4                      ; 0x4 <__rc2>
    270b: a6 51        	ldx	$51                     ; 0x51 <__rc31+0x30>
    270d: 86 05        	stx	$5                      ; 0x5 <__rc3>
    270f: a0 0a        	ldy	#$a
    2711: a9 00        	lda	#$0
    2713: aa           	tax
    2714: 85 15        	sta	$15                     ; 0x15 <__rc19>
    2716: 86 14        	stx	$14                     ; 0x14 <__rc18>
    2718: a6 40        	ldx	$40                     ; 0x40 <__rc31+0x1f>
    271a: 86 06        	stx	$6                      ; 0x6 <__rc4>
    271c: a6 41        	ldx	$41                     ; 0x41 <__rc31+0x20>
    271e: 86 07        	stx	$7                      ; 0x7 <__rc5>
    2720: 80 0f        	bra	$2731 <printf+0x3d>
    2722: 20 d2 ff     	jsr	$ffd2 <__heap_start+0xbfed>
    2725: e6 06        	inc	$6                      ; 0x6 <__rc4>
    2727: d0 02        	bne	$272b <printf+0x37>
    2729: e6 07        	inc	$7                      ; 0x7 <__rc5>
    272b: e6 15        	inc	$15                     ; 0x15 <__rc19>
    272d: d0 02        	bne	$2731 <printf+0x3d>
    272f: e6 14        	inc	$14                     ; 0x14 <__rc18>
    2731: e6 40        	inc	$40                     ; 0x40 <__rc31+0x1f>
    2733: d0 02        	bne	$2737 <printf+0x43>
    2735: e6 41        	inc	$41                     ; 0x41 <__rc31+0x20>
    2737: b2 06        	lda	($6),z                  ; 0x6 <__rc4>
    2739: d0 03        	bne	$273e <printf+0x4a>
    273b: 4c 98 2b     	jmp	$2b98 <printf+0x4a4>
    273e: c9 25        	cmp	#$25
    2740: d0 03        	bne	$2745 <printf+0x51>
    2742: 4c 2d 28     	jmp	$282d <printf+0x139>
    2745: c9 0a        	cmp	#$a
    2747: d0 d9        	bne	$2722 <printf+0x2e>
    2749: 4c a4 31     	jmp	$31a4 <printf+0xab0>
    274c: 85 43        	sta	$43                     ; 0x43 <__rc31+0x22>
    274e: 86 04        	stx	$4                      ; 0x4 <__rc2>
    2750: 64 05        	stz	$5                      ; 0x5 <__rc3>
    2752: a6 0d        	ldx	$d                      ; 0xd <__rc11>
    2754: a5 0c        	lda	$c                      ; 0xc <__rc10>
    2756: 20 f0 38     	jsr	$38f0 <__mulhi3>
    2759: 86 04        	stx	$4                      ; 0x4 <__rc2>
    275b: a2 0a        	ldx	#$a
    275d: 18           	clc
    275e: 65 43        	adc	$43                     ; 0x43 <__rc31+0x22>
    2760: 85 05        	sta	$5                      ; 0x5 <__rc3>
    2762: a5 04        	lda	$4                      ; 0x4 <__rc2>
    2764: 65 42        	adc	$42                     ; 0x42 <__rc31+0x21>
    2766: a8           	tay
    2767: 18           	clc
    2768: a5 05        	lda	$5                      ; 0x5 <__rc3>
    276a: 69 d0        	adc	#$d0
    276c: 85 0c        	sta	$c                      ; 0xc <__rc10>
    276e: 98           	tya
    276f: 69 ff        	adc	#$ff
    2771: 85 0d        	sta	$d                      ; 0xd <__rc11>
    2773: a0 01        	ldy	#$1
    2775: b1 40        	lda	($40),y                 ; 0x40 <__rc31+0x1f>
    2777: a8           	tay
    2778: 18           	clc
    2779: 69 d0        	adc	#$d0
    277b: c9 0a        	cmp	#$a
    277d: a9 01        	lda	#$1
    277f: b0 02        	bcs	$2783 <printf+0x8f>
    2781: a9 00        	lda	#$0
    2783: 85 04        	sta	$4                      ; 0x4 <__rc2>
    2785: 98           	tya
    2786: e6 40        	inc	$40                     ; 0x40 <__rc31+0x1f>
    2788: d0 02        	bne	$278c <printf+0x98>
    278a: e6 41        	inc	$41                     ; 0x41 <__rc31+0x20>
    278c: 64 42        	stz	$42                     ; 0x42 <__rc31+0x21>
    278e: a4 04        	ldy	$4                      ; 0x4 <__rc2>
    2790: f0 ba        	beq	$274c <printf+0x58>
    2792: 4c f5 2c     	jmp	$2cf5 <printf+0x601>
    2795: a6 0e        	ldx	$e                      ; 0xe <__rc12>
    2797: c6 0e        	dec	$e                      ; 0xe <__rc12>
    2799: e0 00        	cpx	#$0
    279b: d0 02        	bne	$279f <printf+0xab>
    279d: c6 0f        	dec	$f                      ; 0xf <__rc13>
    279f: e6 08        	inc	$8                      ; 0x8 <__rc6>
    27a1: d0 02        	bne	$27a5 <printf+0xb1>
    27a3: e6 09        	inc	$9                      ; 0x9 <__rc7>
    27a5: a2 00        	ldx	#$0
    27a7: a5 0f        	lda	$f                      ; 0xf <__rc13>
    27a9: d0 08        	bne	$27b3 <printf+0xbf>
    27ab: a2 01        	ldx	#$1
    27ad: a5 0e        	lda	$e                      ; 0xe <__rc12>
    27af: f0 02        	beq	$27b3 <printf+0xbf>
    27b1: a2 00        	ldx	#$0
    27b3: a0 01        	ldy	#$1
    27b5: b1 0a        	lda	($a),y                  ; 0xa <__rc8>
    27b7: d0 02        	bne	$27bb <printf+0xc7>
    27b9: a2 01        	ldx	#$1
    27bb: a4 08        	ldy	$8                      ; 0x8 <__rc6>
    27bd: 84 0a        	sty	$a                      ; 0xa <__rc8>
    27bf: a4 09        	ldy	$9                      ; 0x9 <__rc7>
    27c1: 84 0b        	sty	$b                      ; 0xb <__rc9>
    27c3: a4 11        	ldy	$11                     ; 0x11 <__rc15>
    27c5: 8a           	txa
    27c6: f0 cd        	beq	$2795 <printf+0xa1>
    27c8: 4c 53 2e     	jmp	$2e53 <printf+0x75f>
    27cb: a9 20        	lda	#$20
    27cd: 20 d2 ff     	jsr	$ffd2 <__heap_start+0xbfed>
    27d0: 8a           	txa
    27d1: 84 08        	sty	$8                      ; 0x8 <__rc6>
    27d3: 3a           	dec
    27d4: e0 00        	cpx	#$0
    27d6: d0 02        	bne	$27da <printf+0xe6>
    27d8: c6 08        	dec	$8                      ; 0x8 <__rc6>
    27da: aa           	tax
    27db: a4 08        	ldy	$8                      ; 0x8 <__rc6>
    27dd: d0 ec        	bne	$27cb <printf+0xd7>
    27df: c9 00        	cmp	#$0
    27e1: d0 e8        	bne	$27cb <printf+0xd7>
    27e3: 4c b4 30     	jmp	$30b4 <printf+0x9c0>
    27e6: a9 20        	lda	#$20
    27e8: 20 d2 ff     	jsr	$ffd2 <__heap_start+0xbfed>
    27eb: 8a           	txa
    27ec: 84 0a        	sty	$a                      ; 0xa <__rc8>
    27ee: 3a           	dec
    27ef: e0 00        	cpx	#$0
    27f1: d0 02        	bne	$27f5 <printf+0x101>
    27f3: c6 0a        	dec	$a                      ; 0xa <__rc8>
    27f5: a4 0a        	ldy	$a                      ; 0xa <__rc8>
    27f7: aa           	tax
    27f8: c0 00        	cpy	#$0
    27fa: d0 ea        	bne	$27e6 <printf+0xf2>
    27fc: c9 00        	cmp	#$0
    27fe: d0 e6        	bne	$27e6 <printf+0xf2>
    2800: 4c e9 30     	jmp	$30e9 <printf+0x9f5>
    2803: a9 20        	lda	#$20
    2805: 20 d2 ff     	jsr	$ffd2 <__heap_start+0xbfed>
    2808: 98           	tya
    2809: 88           	dey
    280a: c9 00        	cmp	#$0
    280c: d0 01        	bne	$280f <printf+0x11b>
    280e: ca           	dex
    280f: 8a           	txa
    2810: d0 f1        	bne	$2803 <printf+0x10f>
    2812: 98           	tya
    2813: d0 ee        	bne	$2803 <printf+0x10f>
    2815: 4c 00 31     	jmp	$3100 <printf+0xa0c>
    2818: a9 20        	lda	#$20
    281a: 20 d2 ff     	jsr	$ffd2 <__heap_start+0xbfed>
    281d: 98           	tya
    281e: 88           	dey
    281f: c9 00        	cmp	#$0
    2821: d0 01        	bne	$2824 <printf+0x130>
    2823: ca           	dex
    2824: 8a           	txa
    2825: d0 f1        	bne	$2818 <printf+0x124>
    2827: 98           	tya
    2828: d0 ee        	bne	$2818 <printf+0x124>
    282a: 4c 10 31     	jmp	$3110 <printf+0xa1c>
    282d: 64 06        	stz	$6                      ; 0x6 <__rc4>
    282f: 64 46        	stz	$46                     ; 0x46 <__rc31+0x25>
    2831: 80 14        	bra	$2847 <printf+0x153>
    2833: a9 08        	lda	#$8
    2835: 80 06        	bra	$283d <printf+0x149>
    2837: a9 10        	lda	#$10
    2839: 80 02        	bra	$283d <printf+0x149>
    283b: a9 04        	lda	#$4
    283d: 05 06        	ora	$6                      ; 0x6 <__rc4>
    283f: e6 40        	inc	$40                     ; 0x40 <__rc31+0x1f>
    2841: d0 02        	bne	$2845 <printf+0x151>
    2843: e6 41        	inc	$41                     ; 0x41 <__rc31+0x20>
    2845: 85 06        	sta	$6                      ; 0x6 <__rc4>
    2847: b2 40        	lda	($40),z                 ; 0x40 <__rc31+0x1f>
    2849: c9 20        	cmp	#$20
    284b: f0 e6        	beq	$2833 <printf+0x13f>
    284d: c9 23        	cmp	#$23
    284f: f0 e6        	beq	$2837 <printf+0x143>
    2851: c9 2b        	cmp	#$2b
    2853: f0 e6        	beq	$283b <printf+0x147>
    2855: aa           	tax
    2856: a9 01        	lda	#$1
    2858: e0 30        	cpx	#$30
    285a: f0 e1        	beq	$283d <printf+0x149>
    285c: e0 2d        	cpx	#$2d
    285e: d0 04        	bne	$2864 <printf+0x170>
    2860: a9 02        	lda	#$2
    2862: 80 d9        	bra	$283d <printf+0x149>
    2864: 8a           	txa
    2865: e0 30        	cpx	#$30
    2867: b0 03        	bcs	$286c <printf+0x178>
    2869: 4c 5f 29     	jmp	$295f <printf+0x26b>
    286c: c9 3a        	cmp	#$3a
    286e: 90 03        	bcc	$2873 <printf+0x17f>
    2870: 4c 92 29     	jmp	$2992 <printf+0x29e>
    2873: a6 06        	ldx	$6                      ; 0x6 <__rc4>
    2875: 86 54        	stx	$54                     ; 0x54 <__rc31+0x33>
    2877: a6 04        	ldx	$4                      ; 0x4 <__rc2>
    2879: 86 52        	stx	$52                     ; 0x52 <__rc31+0x31>
    287b: a6 05        	ldx	$5                      ; 0x5 <__rc3>
    287d: 86 53        	stx	$53                     ; 0x53 <__rc31+0x32>
    287f: a6 15        	ldx	$15                     ; 0x15 <__rc19>
    2881: 86 55        	stx	$55                     ; 0x55 <__rc31+0x34>
    2883: a6 14        	ldx	$14                     ; 0x14 <__rc18>
    2885: 86 56        	stx	$56                     ; 0x56 <__rc31+0x35>
    2887: 85 43        	sta	$43                     ; 0x43 <__rc31+0x22>
    2889: a9 00        	lda	#$0
    288b: 64 42        	stz	$42                     ; 0x42 <__rc31+0x21>
    288d: 64 46        	stz	$46                     ; 0x46 <__rc31+0x25>
    288f: aa           	tax
    2890: 84 04        	sty	$4                      ; 0x4 <__rc2>
    2892: 64 05        	stz	$5                      ; 0x5 <__rc3>
    2894: 20 f0 38     	jsr	$38f0 <__mulhi3>
    2897: 18           	clc
    2898: 65 43        	adc	$43                     ; 0x43 <__rc31+0x22>
    289a: 85 04        	sta	$4                      ; 0x4 <__rc2>
    289c: 8a           	txa
    289d: 65 42        	adc	$42                     ; 0x42 <__rc31+0x21>
    289f: aa           	tax
    28a0: 18           	clc
    28a1: a5 04        	lda	$4                      ; 0x4 <__rc2>
    28a3: 69 d0        	adc	#$d0
    28a5: 85 04        	sta	$4                      ; 0x4 <__rc2>
    28a7: 8a           	txa
    28a8: 69 ff        	adc	#$ff
    28aa: aa           	tax
    28ab: a0 01        	ldy	#$1
    28ad: b1 40        	lda	($40),y                 ; 0x40 <__rc31+0x1f>
    28af: a0 0a        	ldy	#$a
    28b1: 18           	clc
    28b2: 85 43        	sta	$43                     ; 0x43 <__rc31+0x22>
    28b4: 69 d0        	adc	#$d0
    28b6: c9 0a        	cmp	#$a
    28b8: a9 01        	lda	#$1
    28ba: b0 02        	bcs	$28be <printf+0x1ca>
    28bc: a9 00        	lda	#$0
    28be: 85 05        	sta	$5                      ; 0x5 <__rc3>
    28c0: a5 04        	lda	$4                      ; 0x4 <__rc2>
    28c2: e6 40        	inc	$40                     ; 0x40 <__rc31+0x1f>
    28c4: d0 02        	bne	$28c8 <printf+0x1d4>
    28c6: e6 41        	inc	$41                     ; 0x41 <__rc31+0x20>
    28c8: 64 42        	stz	$42                     ; 0x42 <__rc31+0x21>
    28ca: e6 05        	inc	$5                      ; 0x5 <__rc3>
    28cc: c6 05        	dec	$5                      ; 0x5 <__rc3>
    28ce: f0 c0        	beq	$2890 <printf+0x19c>
    28d0: a4 43        	ldy	$43                     ; 0x43 <__rc31+0x22>
    28d2: 86 45        	stx	$45                     ; 0x45 <__rc31+0x24>
    28d4: a6 56        	ldx	$56                     ; 0x56 <__rc31+0x35>
    28d6: 86 14        	stx	$14                     ; 0x14 <__rc18>
    28d8: a6 55        	ldx	$55                     ; 0x55 <__rc31+0x34>
    28da: 86 15        	stx	$15                     ; 0x15 <__rc19>
    28dc: a6 52        	ldx	$52                     ; 0x52 <__rc31+0x31>
    28de: 86 04        	stx	$4                      ; 0x4 <__rc2>
    28e0: a6 53        	ldx	$53                     ; 0x53 <__rc31+0x32>
    28e2: 86 05        	stx	$5                      ; 0x5 <__rc3>
    28e4: a6 54        	ldx	$54                     ; 0x54 <__rc31+0x33>
    28e6: 86 06        	stx	$6                      ; 0x6 <__rc4>
    28e8: 4c a3 29     	jmp	$29a3 <printf+0x2af>
    28eb: a6 0c        	ldx	$c                      ; 0xc <__rc10>
    28ed: a4 0d        	ldy	$d                      ; 0xd <__rc11>
    28ef: 84 04        	sty	$4                      ; 0x4 <__rc2>
    28f1: 8a           	txa
    28f2: ca           	dex
    28f3: c9 00        	cmp	#$0
    28f5: d0 02        	bne	$28f9 <printf+0x205>
    28f7: c6 04        	dec	$4                      ; 0x4 <__rc2>
    28f9: a5 0d        	lda	$d                      ; 0xd <__rc11>
    28fb: d0 07        	bne	$2904 <printf+0x210>
    28fd: a5 0c        	lda	$c                      ; 0xc <__rc10>
    28ff: d0 03        	bne	$2904 <printf+0x210>
    2901: 4c a9 31     	jmp	$31a9 <printf+0xab5>
    2904: a5 42        	lda	$42                     ; 0x42 <__rc31+0x21>
    2906: c9 0a        	cmp	#$a
    2908: d0 03        	bne	$290d <printf+0x219>
    290a: 4c 09 32     	jmp	$3209 <printf+0xb15>
    290d: 20 d2 ff     	jsr	$ffd2 <__heap_start+0xbfed>
    2910: a0 01        	ldy	#$1
    2912: b1 06        	lda	($6),y                  ; 0x6 <__rc4>
    2914: a4 15        	ldy	$15                     ; 0x15 <__rc19>
    2916: 48           	pha
    2917: a5 14        	lda	$14                     ; 0x14 <__rc18>
    2919: 85 10        	sta	$10                     ; 0x10 <__rc14>
    291b: c8           	iny
    291c: d0 02        	bne	$2920 <printf+0x22c>
    291e: e6 10        	inc	$10                     ; 0x10 <__rc14>
    2920: a5 0a        	lda	$a                      ; 0xa <__rc8>
    2922: 85 06        	sta	$6                      ; 0x6 <__rc4>
    2924: a5 0b        	lda	$b                      ; 0xb <__rc9>
    2926: 85 07        	sta	$7                      ; 0x7 <__rc5>
    2928: 68           	pla
    2929: 86 0c        	stx	$c                      ; 0xc <__rc10>
    292b: a6 04        	ldx	$4                      ; 0x4 <__rc2>
    292d: 86 0d        	stx	$d                      ; 0xd <__rc11>
    292f: 84 15        	sty	$15                     ; 0x15 <__rc19>
    2931: 84 05        	sty	$5                      ; 0x5 <__rc3>
    2933: a6 10        	ldx	$10                     ; 0x10 <__rc14>
    2935: 86 14        	stx	$14                     ; 0x14 <__rc18>
    2937: a6 10        	ldx	$10                     ; 0x10 <__rc14>
    2939: 86 04        	stx	$4                      ; 0x4 <__rc2>
    293b: a4 44        	ldy	$44                     ; 0x44 <__rc31+0x23>
    293d: a6 45        	ldx	$45                     ; 0x45 <__rc31+0x24>
    293f: 86 10        	stx	$10                     ; 0x10 <__rc14>
    2941: 85 42        	sta	$42                     ; 0x42 <__rc31+0x21>
    2943: aa           	tax
    2944: d0 03        	bne	$2949 <printf+0x255>
    2946: 4c b7 31     	jmp	$31b7 <printf+0xac3>
    2949: e6 0a        	inc	$a                      ; 0xa <__rc8>
    294b: d0 02        	bne	$294f <printf+0x25b>
    294d: e6 0b        	inc	$b                      ; 0xb <__rc9>
    294f: a6 0e        	ldx	$e                      ; 0xe <__rc12>
    2951: f0 03        	beq	$2956 <printf+0x262>
    2953: 4c eb 28     	jmp	$28eb <printf+0x1f7>
    2956: a6 0c        	ldx	$c                      ; 0xc <__rc10>
    2958: a4 0d        	ldy	$d                      ; 0xd <__rc11>
    295a: 84 04        	sty	$4                      ; 0x4 <__rc2>
    295c: 4c 04 29     	jmp	$2904 <printf+0x210>
    295f: a9 00        	lda	#$0
    2961: e0 2a        	cpx	#$2a
    2963: d0 3a        	bne	$299f <printf+0x2ab>
    2965: b2 04        	lda	($4),z                  ; 0x4 <__rc2>
    2967: 85 08        	sta	$8                      ; 0x8 <__rc6>
    2969: a0 01        	ldy	#$1
    296b: b1 04        	lda	($4),y                  ; 0x4 <__rc2>
    296d: 85 45        	sta	$45                     ; 0x45 <__rc31+0x24>
    296f: a5 04        	lda	$4                      ; 0x4 <__rc2>
    2971: 18           	clc
    2972: 69 02        	adc	#$2
    2974: aa           	tax
    2975: a5 05        	lda	$5                      ; 0x5 <__rc3>
    2977: 69 00        	adc	#$0
    2979: 85 05        	sta	$5                      ; 0x5 <__rc3>
    297b: a5 45        	lda	$45                     ; 0x45 <__rc31+0x24>
    297d: 10 03        	bpl	$2982 <printf+0x28e>
    297f: 4c 10 2d     	jmp	$2d10 <printf+0x61c>
    2982: 86 04        	stx	$4                      ; 0x4 <__rc2>
    2984: b1 40        	lda	($40),y                 ; 0x40 <__rc31+0x1f>
    2986: a8           	tay
    2987: e6 40        	inc	$40                     ; 0x40 <__rc31+0x1f>
    2989: d0 03        	bne	$298e <printf+0x29a>
    298b: 4c 17 2c     	jmp	$2c17 <printf+0x523>
    298e: a5 08        	lda	$8                      ; 0x8 <__rc6>
    2990: 80 11        	bra	$29a3 <printf+0x2af>
    2992: 64 44        	stz	$44                     ; 0x44 <__rc31+0x23>
    2994: 64 07        	stz	$7                      ; 0x7 <__rc5>
    2996: 64 45        	stz	$45                     ; 0x45 <__rc31+0x24>
    2998: 64 0c        	stz	$c                      ; 0xc <__rc10>
    299a: 64 0d        	stz	$d                      ; 0xd <__rc11>
    299c: 4c 6a 2a     	jmp	$2a6a <printf+0x376>
    299f: da           	phx
    29a0: 7a           	ply
    29a1: 64 45        	stz	$45                     ; 0x45 <__rc31+0x24>
    29a3: c0 2e        	cpy	#$2e
    29a5: d0 2b        	bne	$29d2 <printf+0x2de>
    29a7: 85 44        	sta	$44                     ; 0x44 <__rc31+0x23>
    29a9: a9 00        	lda	#$0
    29ab: 09 04        	ora	#$4
    29ad: 85 46        	sta	$46                     ; 0x46 <__rc31+0x25>
    29af: a6 40        	ldx	$40                     ; 0x40 <__rc31+0x1f>
    29b1: 86 08        	stx	$8                      ; 0x8 <__rc6>
    29b3: a6 41        	ldx	$41                     ; 0x41 <__rc31+0x20>
    29b5: 86 09        	stx	$9                      ; 0x9 <__rc7>
    29b7: e6 08        	inc	$8                      ; 0x8 <__rc6>
    29b9: d0 02        	bne	$29bd <printf+0x2c9>
    29bb: e6 09        	inc	$9                      ; 0x9 <__rc7>
    29bd: a0 01        	ldy	#$1
    29bf: b1 40        	lda	($40),y                 ; 0x40 <__rc31+0x1f>
    29c1: c9 30        	cmp	#$30
    29c3: b0 03        	bcs	$29c8 <printf+0x2d4>
    29c5: 4c 53 2a     	jmp	$2a53 <printf+0x35f>
    29c8: c9 3a        	cmp	#$3a
    29ca: 90 03        	bcc	$29cf <printf+0x2db>
    29cc: 4c 5a 2a     	jmp	$2a5a <printf+0x366>
    29cf: 4c 26 2d     	jmp	$2d26 <printf+0x632>
    29d2: 85 44        	sta	$44                     ; 0x44 <__rc31+0x23>
    29d4: 64 0c        	stz	$c                      ; 0xc <__rc10>
    29d6: 64 0d        	stz	$d                      ; 0xd <__rc11>
    29d8: 64 07        	stz	$7                      ; 0x7 <__rc5>
    29da: 98           	tya
    29db: 4c 6a 2a     	jmp	$2a6a <printf+0x376>
    29de: a6 07        	ldx	$7                      ; 0x7 <__rc5>
    29e0: 86 48        	stx	$48                     ; 0x48 <__rc31+0x27>
    29e2: a6 42        	ldx	$42                     ; 0x42 <__rc31+0x21>
    29e4: 86 49        	stx	$49                     ; 0x49 <__rc31+0x28>
    29e6: 85 4a        	sta	$4a                     ; 0x4a <__rc31+0x29>
    29e8: a6 0a        	ldx	$a                      ; 0xa <__rc8>
    29ea: 86 4b        	stx	$4b                     ; 0x4b <__rc31+0x2a>
    29ec: a6 0b        	ldx	$b                      ; 0xb <__rc9>
    29ee: 86 4c        	stx	$4c                     ; 0x4c <__rc31+0x2b>
    29f0: a6 0e        	ldx	$e                      ; 0xe <__rc12>
    29f2: 86 4d        	stx	$4d                     ; 0x4d <__rc31+0x2c>
    29f4: a6 0f        	ldx	$f                      ; 0xf <__rc13>
    29f6: 86 4e        	stx	$4e                     ; 0x4e <__rc31+0x2d>
    29f8: 84 4f        	sty	$4f                     ; 0x4f <__rc31+0x2e>
    29fa: a5 04        	lda	$4                      ; 0x4 <__rc2>
    29fc: 18           	clc
    29fd: 69 08        	adc	#$8
    29ff: 85 42        	sta	$42                     ; 0x42 <__rc31+0x21>
    2a01: a5 05        	lda	$5                      ; 0x5 <__rc3>
    2a03: 69 00        	adc	#$0
    2a05: a6 06        	ldx	$6                      ; 0x6 <__rc4>
    2a07: 30 03        	bmi	$2a0c <printf+0x318>
    2a09: 4c 2a 2c     	jmp	$2c2a <printf+0x536>
    2a0c: 4c 25 2c     	jmp	$2c25 <printf+0x531>
    2a0f: 85 43        	sta	$43                     ; 0x43 <__rc31+0x22>
    2a11: a9 48        	lda	#$48
    2a13: 85 04        	sta	$4                      ; 0x4 <__rc2>
    2a15: a9 00        	lda	#$0
    2a17: 85 05        	sta	$5                      ; 0x5 <__rc3>
    2a19: a6 44        	ldx	$44                     ; 0x44 <__rc31+0x23>
    2a1b: 86 0e        	stx	$e                      ; 0xe <__rc12>
    2a1d: a6 45        	ldx	$45                     ; 0x45 <__rc31+0x24>
    2a1f: 86 0f        	stx	$f                      ; 0xf <__rc13>
    2a21: 84 07        	sty	$7                      ; 0x7 <__rc5>
    2a23: a0 08        	ldy	#$8
    2a25: 84 06        	sty	$6                      ; 0x6 <__rc4>
    2a27: 64 09        	stz	$9                      ; 0x9 <__rc7>
    2a29: 64 0a        	stz	$a                      ; 0xa <__rc8>
    2a2b: 64 0b        	stz	$b                      ; 0xb <__rc9>
    2a2d: a6 14        	ldx	$14                     ; 0x14 <__rc18>
    2a2f: a5 15        	lda	$15                     ; 0x15 <__rc19>
    2a31: 20 20 32     	jsr	$3220 <_ntoa>
    2a34: a4 42        	ldy	$42                     ; 0x42 <__rc31+0x21>
    2a36: 84 06        	sty	$6                      ; 0x6 <__rc4>
    2a38: a4 43        	ldy	$43                     ; 0x43 <__rc31+0x22>
    2a3a: 84 07        	sty	$7                      ; 0x7 <__rc5>
    2a3c: 86 08        	stx	$8                      ; 0x8 <__rc6>
    2a3e: a0 0a        	ldy	#$a
    2a40: e6 40        	inc	$40                     ; 0x40 <__rc31+0x1f>
    2a42: d0 02        	bne	$2a46 <printf+0x352>
    2a44: e6 41        	inc	$41                     ; 0x41 <__rc31+0x20>
    2a46: a6 06        	ldx	$6                      ; 0x6 <__rc4>
    2a48: 86 04        	stx	$4                      ; 0x4 <__rc2>
    2a4a: a6 07        	ldx	$7                      ; 0x7 <__rc5>
    2a4c: 86 05        	stx	$5                      ; 0x5 <__rc3>
    2a4e: a6 08        	ldx	$8                      ; 0x8 <__rc6>
    2a50: 4c 14 27     	jmp	$2714 <printf+0x20>
    2a53: c9 2a        	cmp	#$2a
    2a55: d0 03        	bne	$2a5a <printf+0x366>
    2a57: 4c 4d 2d     	jmp	$2d4d <printf+0x659>
    2a5a: a6 08        	ldx	$8                      ; 0x8 <__rc6>
    2a5c: 86 40        	stx	$40                     ; 0x40 <__rc31+0x1f>
    2a5e: a6 09        	ldx	$9                      ; 0x9 <__rc7>
    2a60: 86 41        	stx	$41                     ; 0x41 <__rc31+0x20>
    2a62: 64 0c        	stz	$c                      ; 0xc <__rc10>
    2a64: 64 0d        	stz	$d                      ; 0xd <__rc11>
    2a66: a6 46        	ldx	$46                     ; 0x46 <__rc31+0x25>
    2a68: 86 07        	stx	$7                      ; 0x7 <__rc5>
    2a6a: 85 08        	sta	$8                      ; 0x8 <__rc6>
    2a6c: 18           	clc
    2a6d: 69 98        	adc	#$98
    2a6f: a6 08        	ldx	$8                      ; 0x8 <__rc6>
    2a71: 86 0b        	stx	$b                      ; 0xb <__rc9>
    2a73: 46 08        	lsr	$8                      ; 0x8 <__rc6>
    2a75: 64 08        	stz	$8                      ; 0x8 <__rc6>
    2a77: 66 08        	ror	$8                      ; 0x8 <__rc6>
    2a79: 4a           	lsr
    2a7a: 05 08        	ora	$8                      ; 0x8 <__rc6>
    2a7c: c9 0a        	cmp	#$a
    2a7e: 90 03        	bcc	$2a83 <printf+0x38f>
    2a80: 4c aa 2e     	jmp	$2eaa <printf+0x7b6>
    2a83: aa           	tax
    2a84: a0 02        	ldy	#$2
    2a86: 84 52        	sty	$52                     ; 0x52 <__rc31+0x31>
    2a88: bc 49 3a     	ldy	$3a49,x                 ; 0x3a49 <__set_v+0x1>
    2a8b: 84 08        	sty	$8                      ; 0x8 <__rc6>
    2a8d: a0 01        	ldy	#$1
    2a8f: bd 53 3a     	lda	$3a53,x                 ; 0x3a53 <__set_v+0xb>
    2a92: aa           	tax
    2a93: 86 09        	stx	$9                      ; 0x9 <__rc7>
    2a95: a2 00        	ldx	#$0
    2a97: a5 06        	lda	$6                      ; 0x6 <__rc4>
    2a99: 85 10        	sta	$10                     ; 0x10 <__rc14>
    2a9b: a5 07        	lda	$7                      ; 0x7 <__rc5>
    2a9d: 6c 08 00     	jmp	($8)                    ; 0x8 <__rc6>
    2aa0: 8a           	txa
    2aa1: 05 06        	ora	$6                      ; 0x6 <__rc4>
    2aa3: 85 10        	sta	$10                     ; 0x10 <__rc14>
    2aa5: a5 52        	lda	$52                     ; 0x52 <__rc31+0x31>
    2aa7: 05 07        	ora	$7                      ; 0x7 <__rc5>
    2aa9: aa           	tax
    2aaa: 98           	tya
    2aab: 18           	clc
    2aac: 65 40        	adc	$40                     ; 0x40 <__rc31+0x1f>
    2aae: 85 06        	sta	$6                      ; 0x6 <__rc4>
    2ab0: a5 41        	lda	$41                     ; 0x41 <__rc31+0x20>
    2ab2: 64 07        	stz	$7                      ; 0x7 <__rc5>
    2ab4: 65 07        	adc	$7                      ; 0x7 <__rc5>
    2ab6: 85 07        	sta	$7                      ; 0x7 <__rc5>
    2ab8: b1 40        	lda	($40),y                 ; 0x40 <__rc31+0x1f>
    2aba: 85 0b        	sta	$b                      ; 0xb <__rc9>
    2abc: a4 06        	ldy	$6                      ; 0x6 <__rc4>
    2abe: 84 40        	sty	$40                     ; 0x40 <__rc31+0x1f>
    2ac0: a4 07        	ldy	$7                      ; 0x7 <__rc5>
    2ac2: 84 41        	sty	$41                     ; 0x41 <__rc31+0x20>
    2ac4: 8a           	txa
    2ac5: 85 11        	sta	$11                     ; 0x11 <__rc15>
    2ac7: 38           	sec
    2ac8: a5 0b        	lda	$b                      ; 0xb <__rc9>
    2aca: e9 62        	sbc	#$62
    2acc: c9 14        	cmp	#$14
    2ace: b0 3e        	bcs	$2b0e <printf+0x41a>
    2ad0: a8           	tay
    2ad1: a2 08        	ldx	#$8
    2ad3: b9 5d 3a     	lda	$3a5d,y                 ; 0x3a5d <__set_v+0x15>
    2ad6: 48           	pha
    2ad7: b9 71 3a     	lda	$3a71,y                 ; 0x3a71 <__set_v+0x29>
    2ada: a8           	tay
    2adb: 68           	pla
    2adc: 85 06        	sta	$6                      ; 0x6 <__rc4>
    2ade: 84 07        	sty	$7                      ; 0x7 <__rc5>
    2ae0: a0 01        	ldy	#$1
    2ae2: 6c 06 00     	jmp	($6)                    ; 0x6 <__rc4>
    2ae5: a2 0a        	ldx	#$a
    2ae7: a5 10        	lda	$10                     ; 0x10 <__rc14>
    2ae9: 29 ef        	and	#$ef
    2aeb: 85 10        	sta	$10                     ; 0x10 <__rc14>
    2aed: a5 0b        	lda	$b                      ; 0xb <__rc9>
    2aef: c9 69        	cmp	#$69
    2af1: f0 11        	beq	$2b04 <printf+0x410>
    2af3: c9 64        	cmp	#$64
    2af5: f0 0d        	beq	$2b04 <printf+0x410>
    2af7: c9 58        	cmp	#$58
    2af9: d0 03        	bne	$2afe <printf+0x40a>
    2afb: 4c 1c 2c     	jmp	$2c1c <printf+0x528>
    2afe: a5 10        	lda	$10                     ; 0x10 <__rc14>
    2b00: 29 f3        	and	#$f3
    2b02: 85 10        	sta	$10                     ; 0x10 <__rc14>
    2b04: a5 11        	lda	$11                     ; 0x11 <__rc15>
    2b06: 29 04        	and	#$4
    2b08: d0 17        	bne	$2b21 <printf+0x42d>
    2b0a: 86 08        	stx	$8                      ; 0x8 <__rc6>
    2b0c: 80 1b        	bra	$2b29 <printf+0x435>
    2b0e: a5 0b        	lda	$b                      ; 0xb <__rc9>
    2b10: c9 25        	cmp	#$25
    2b12: d0 03        	bne	$2b17 <printf+0x423>
    2b14: 4c c5 2e     	jmp	$2ec5 <printf+0x7d1>
    2b17: c9 58        	cmp	#$58
    2b19: f0 03        	beq	$2b1e <printf+0x42a>
    2b1b: 4c ed 2b     	jmp	$2bed <printf+0x4f9>
    2b1e: 4c e0 2e     	jmp	$2ee0 <printf+0x7ec>
    2b21: 86 08        	stx	$8                      ; 0x8 <__rc6>
    2b23: a5 10        	lda	$10                     ; 0x10 <__rc14>
    2b25: 29 fe        	and	#$fe
    2b27: 85 10        	sta	$10                     ; 0x10 <__rc14>
    2b29: a5 11        	lda	$11                     ; 0x11 <__rc15>
    2b2b: 29 02        	and	#$2
    2b2d: a6 0b        	ldx	$b                      ; 0xb <__rc9>
    2b2f: e0 69        	cpx	#$69
    2b31: f0 04        	beq	$2b37 <printf+0x443>
    2b33: e0 64        	cpx	#$64
    2b35: d0 0f        	bne	$2b46 <printf+0x452>
    2b37: aa           	tax
    2b38: d0 15        	bne	$2b4f <printf+0x45b>
    2b3a: a5 11        	lda	$11                     ; 0x11 <__rc15>
    2b3c: 29 01        	and	#$1
    2b3e: f0 03        	beq	$2b43 <printf+0x44f>
    2b40: 4c 44 2c     	jmp	$2c44 <printf+0x550>
    2b43: 4c 2f 2c     	jmp	$2c2f <printf+0x53b>
    2b46: aa           	tax
    2b47: d0 03        	bne	$2b4c <printf+0x458>
    2b49: 4c 72 2c     	jmp	$2c72 <printf+0x57e>
    2b4c: 4c 8b 2c     	jmp	$2c8b <printf+0x597>
    2b4f: b2 04        	lda	($4),z                  ; 0x4 <__rc2>
    2b51: 85 07        	sta	$7                      ; 0x7 <__rc5>
    2b53: c9 01        	cmp	#$1
    2b55: b1 04        	lda	($4),y                  ; 0x4 <__rc2>
    2b57: 85 42        	sta	$42                     ; 0x42 <__rc31+0x21>
    2b59: e9 00        	sbc	#$0
    2b5b: a0 02        	ldy	#$2
    2b5d: b1 04        	lda	($4),y                  ; 0x4 <__rc2>
    2b5f: 85 09        	sta	$9                      ; 0x9 <__rc7>
    2b61: e9 00        	sbc	#$0
    2b63: c8           	iny
    2b64: b1 04        	lda	($4),y                  ; 0x4 <__rc2>
    2b66: 85 0a        	sta	$a                      ; 0xa <__rc8>
    2b68: e9 00        	sbc	#$0
    2b6a: c8           	iny
    2b6b: b1 04        	lda	($4),y                  ; 0x4 <__rc2>
    2b6d: 85 0b        	sta	$b                      ; 0xb <__rc9>
    2b6f: e9 00        	sbc	#$0
    2b71: c8           	iny
    2b72: b1 04        	lda	($4),y                  ; 0x4 <__rc2>
    2b74: 85 0e        	sta	$e                      ; 0xe <__rc12>
    2b76: e9 00        	sbc	#$0
    2b78: c8           	iny
    2b79: b1 04        	lda	($4),y                  ; 0x4 <__rc2>
    2b7b: 85 0f        	sta	$f                      ; 0xf <__rc13>
    2b7d: e9 00        	sbc	#$0
    2b7f: c8           	iny
    2b80: b1 04        	lda	($4),y                  ; 0x4 <__rc2>
    2b82: 85 06        	sta	$6                      ; 0x6 <__rc4>
    2b84: e9 00        	sbc	#$0
    2b86: 50 03        	bvc	$2b8b <printf+0x497>
    2b88: 4c f0 2c     	jmp	$2cf0 <printf+0x5fc>
    2b8b: aa           	tax
    2b8c: 10 03        	bpl	$2b91 <printf+0x49d>
    2b8e: 4c e7 2e     	jmp	$2ee7 <printf+0x7f3>
    2b91: a5 09        	lda	$9                      ; 0x9 <__rc7>
    2b93: a4 06        	ldy	$6                      ; 0x6 <__rc4>
    2b95: 4c de 29     	jmp	$29de <printf+0x2ea>
    2b98: 60           	rts
    2b99: a5 40        	lda	$40                     ; 0x40 <__rc31+0x1f>
    2b9b: 85 08        	sta	$8                      ; 0x8 <__rc6>
    2b9d: a5 41        	lda	$41                     ; 0x41 <__rc31+0x20>
    2b9f: 85 09        	sta	$9                      ; 0x9 <__rc7>
    2ba1: e6 08        	inc	$8                      ; 0x8 <__rc6>
    2ba3: d0 02        	bne	$2ba7 <printf+0x4b3>
    2ba5: e6 09        	inc	$9                      ; 0x9 <__rc7>
    2ba7: b1 40        	lda	($40),y                 ; 0x40 <__rc31+0x1f>
    2ba9: c9 68        	cmp	#$68
    2bab: f0 03        	beq	$2bb0 <printf+0x4bc>
    2bad: 4c b0 2e     	jmp	$2eb0 <printf+0x7bc>
    2bb0: 86 52        	stx	$52                     ; 0x52 <__rc31+0x31>
    2bb2: a0 02        	ldy	#$2
    2bb4: a2 c0        	ldx	#$c0
    2bb6: 4c a0 2a     	jmp	$2aa0 <printf+0x3ac>
    2bb9: a2 03        	ldx	#$3
    2bbb: 86 52        	stx	$52                     ; 0x52 <__rc31+0x31>
    2bbd: a6 40        	ldx	$40                     ; 0x40 <__rc31+0x1f>
    2bbf: 86 08        	stx	$8                      ; 0x8 <__rc6>
    2bc1: a6 41        	ldx	$41                     ; 0x41 <__rc31+0x20>
    2bc3: 86 09        	stx	$9                      ; 0x9 <__rc7>
    2bc5: e6 08        	inc	$8                      ; 0x8 <__rc6>
    2bc7: d0 02        	bne	$2bcb <printf+0x4d7>
    2bc9: e6 09        	inc	$9                      ; 0x9 <__rc7>
    2bcb: b1 40        	lda	($40),y                 ; 0x40 <__rc31+0x1f>
    2bcd: a0 02        	ldy	#$2
    2bcf: a2 00        	ldx	#$0
    2bd1: c9 6c        	cmp	#$6c
    2bd3: d0 03        	bne	$2bd8 <printf+0x4e4>
    2bd5: 4c a0 2a     	jmp	$2aa0 <printf+0x3ac>
    2bd8: 85 0b        	sta	$b                      ; 0xb <__rc9>
    2bda: a5 07        	lda	$7                      ; 0x7 <__rc5>
    2bdc: 09 01        	ora	#$1
    2bde: a6 08        	ldx	$8                      ; 0x8 <__rc6>
    2be0: 86 40        	stx	$40                     ; 0x40 <__rc31+0x1f>
    2be2: a6 09        	ldx	$9                      ; 0x9 <__rc7>
    2be4: 86 41        	stx	$41                     ; 0x41 <__rc31+0x20>
    2be6: a6 06        	ldx	$6                      ; 0x6 <__rc4>
    2be8: 86 10        	stx	$10                     ; 0x10 <__rc14>
    2bea: 4c c5 2a     	jmp	$2ac5 <printf+0x3d1>
    2bed: a2 10        	ldx	#$10
    2bef: a0 01        	ldy	#$1
    2bf1: c9 78        	cmp	#$78
    2bf3: d0 03        	bne	$2bf8 <printf+0x504>
    2bf5: 4c ed 2a     	jmp	$2aed <printf+0x3f9>
    2bf8: a6 14        	ldx	$14                     ; 0x14 <__rc18>
    2bfa: e6 15        	inc	$15                     ; 0x15 <__rc19>
    2bfc: d0 01        	bne	$2bff <printf+0x50b>
    2bfe: e8           	inx
    2bff: 86 08        	stx	$8                      ; 0x8 <__rc6>
    2c01: a5 0b        	lda	$b                      ; 0xb <__rc9>
    2c03: f0 03        	beq	$2c08 <printf+0x514>
    2c05: 4c 1a 2f     	jmp	$2f1a <printf+0x826>
    2c08: a6 04        	ldx	$4                      ; 0x4 <__rc2>
    2c0a: 86 06        	stx	$6                      ; 0x6 <__rc4>
    2c0c: a6 05        	ldx	$5                      ; 0x5 <__rc3>
    2c0e: 86 07        	stx	$7                      ; 0x7 <__rc5>
    2c10: a0 0a        	ldy	#$a
    2c12: a5 15        	lda	$15                     ; 0x15 <__rc19>
    2c14: 4c 40 2a     	jmp	$2a40 <printf+0x34c>
    2c17: e6 41        	inc	$41                     ; 0x41 <__rc31+0x20>
    2c19: 4c 8e 29     	jmp	$298e <printf+0x29a>
    2c1c: a5 10        	lda	$10                     ; 0x10 <__rc14>
    2c1e: 09 20        	ora	#$20
    2c20: 85 10        	sta	$10                     ; 0x10 <__rc14>
    2c22: 4c fe 2a     	jmp	$2afe <printf+0x40a>
    2c25: a0 01        	ldy	#$1
    2c27: 4c 0f 2a     	jmp	$2a0f <printf+0x31b>
    2c2a: a0 00        	ldy	#$0
    2c2c: 4c 0f 2a     	jmp	$2a0f <printf+0x31b>
    2c2f: a5 10        	lda	$10                     ; 0x10 <__rc14>
    2c31: 29 40        	and	#$40
    2c33: aa           	tax
    2c34: b2 04        	lda	($4),z                  ; 0x4 <__rc2>
    2c36: 30 03        	bmi	$2c3b <printf+0x547>
    2c38: 4c 36 2f     	jmp	$2f36 <printf+0x842>
    2c3b: a0 ff        	ldy	#$ff
    2c3d: 84 06        	sty	$6                      ; 0x6 <__rc4>
    2c3f: a0 01        	ldy	#$1
    2c41: 4c 38 2f     	jmp	$2f38 <printf+0x844>
    2c44: b2 04        	lda	($4),z                  ; 0x4 <__rc2>
    2c46: 85 07        	sta	$7                      ; 0x7 <__rc5>
    2c48: c9 01        	cmp	#$1
    2c4a: b1 04        	lda	($4),y                  ; 0x4 <__rc2>
    2c4c: 85 0a        	sta	$a                      ; 0xa <__rc8>
    2c4e: e9 00        	sbc	#$0
    2c50: a0 02        	ldy	#$2
    2c52: b1 04        	lda	($4),y                  ; 0x4 <__rc2>
    2c54: 85 09        	sta	$9                      ; 0x9 <__rc7>
    2c56: e9 00        	sbc	#$0
    2c58: c8           	iny
    2c59: b1 04        	lda	($4),y                  ; 0x4 <__rc2>
    2c5b: 85 06        	sta	$6                      ; 0x6 <__rc4>
    2c5d: e9 00        	sbc	#$0
    2c5f: 50 02        	bvc	$2c63 <printf+0x56f>
    2c61: 49 80        	eor	#$80
    2c63: aa           	tax
    2c64: 10 03        	bpl	$2c69 <printf+0x575>
    2c66: 4c f6 2f     	jmp	$2ff6 <printf+0x902>
    2c69: a4 07        	ldy	$7                      ; 0x7 <__rc5>
    2c6b: a5 0a        	lda	$a                      ; 0xa <__rc8>
    2c6d: a6 06        	ldx	$6                      ; 0x6 <__rc4>
    2c6f: 4c 0f 30     	jmp	$300f <printf+0x91b>
    2c72: a5 11        	lda	$11                     ; 0x11 <__rc15>
    2c74: 29 01        	and	#$1
    2c76: f0 03        	beq	$2c7b <printf+0x587>
    2c78: 4c 4a 2f     	jmp	$2f4a <printf+0x856>
    2c7b: a5 10        	lda	$10                     ; 0x10 <__rc14>
    2c7d: 29 40        	and	#$40
    2c7f: f0 03        	beq	$2c84 <printf+0x590>
    2c81: 4c 84 30     	jmp	$3084 <printf+0x990>
    2c84: b1 04        	lda	($4),y                  ; 0x4 <__rc2>
    2c86: 85 06        	sta	$6                      ; 0x6 <__rc4>
    2c88: 4c 86 30     	jmp	$3086 <printf+0x992>
    2c8b: a5 04        	lda	$4                      ; 0x4 <__rc2>
    2c8d: 18           	clc
    2c8e: 69 08        	adc	#$8
    2c90: 85 42        	sta	$42                     ; 0x42 <__rc31+0x21>
    2c92: a5 05        	lda	$5                      ; 0x5 <__rc3>
    2c94: 69 00        	adc	#$0
    2c96: 85 43        	sta	$43                     ; 0x43 <__rc31+0x22>
    2c98: b2 04        	lda	($4),z                  ; 0x4 <__rc2>
    2c9a: 85 07        	sta	$7                      ; 0x7 <__rc5>
    2c9c: b1 04        	lda	($4),y                  ; 0x4 <__rc2>
    2c9e: 85 06        	sta	$6                      ; 0x6 <__rc4>
    2ca0: a0 02        	ldy	#$2
    2ca2: b1 04        	lda	($4),y                  ; 0x4 <__rc2>
    2ca4: 85 0a        	sta	$a                      ; 0xa <__rc8>
    2ca6: c8           	iny
    2ca7: b1 04        	lda	($4),y                  ; 0x4 <__rc2>
    2ca9: 85 09        	sta	$9                      ; 0x9 <__rc7>
    2cab: c8           	iny
    2cac: b1 04        	lda	($4),y                  ; 0x4 <__rc2>
    2cae: 85 0e        	sta	$e                      ; 0xe <__rc12>
    2cb0: c8           	iny
    2cb1: b1 04        	lda	($4),y                  ; 0x4 <__rc2>
    2cb3: 85 0b        	sta	$b                      ; 0xb <__rc9>
    2cb5: c8           	iny
    2cb6: b1 04        	lda	($4),y                  ; 0x4 <__rc2>
    2cb8: 85 0f        	sta	$f                      ; 0xf <__rc13>
    2cba: c8           	iny
    2cbb: b1 04        	lda	($4),y                  ; 0x4 <__rc2>
    2cbd: a6 07        	ldx	$7                      ; 0x7 <__rc5>
    2cbf: 86 48        	stx	$48                     ; 0x48 <__rc31+0x27>
    2cc1: a6 06        	ldx	$6                      ; 0x6 <__rc4>
    2cc3: 86 49        	stx	$49                     ; 0x49 <__rc31+0x28>
    2cc5: a6 0a        	ldx	$a                      ; 0xa <__rc8>
    2cc7: 86 4a        	stx	$4a                     ; 0x4a <__rc31+0x29>
    2cc9: a6 09        	ldx	$9                      ; 0x9 <__rc7>
    2ccb: 86 4b        	stx	$4b                     ; 0x4b <__rc31+0x2a>
    2ccd: a6 0e        	ldx	$e                      ; 0xe <__rc12>
    2ccf: 86 4c        	stx	$4c                     ; 0x4c <__rc31+0x2b>
    2cd1: a6 0b        	ldx	$b                      ; 0xb <__rc9>
    2cd3: 86 4d        	stx	$4d                     ; 0x4d <__rc31+0x2c>
    2cd5: a6 0f        	ldx	$f                      ; 0xf <__rc13>
    2cd7: 86 4e        	stx	$4e                     ; 0x4e <__rc31+0x2d>
    2cd9: 85 4f        	sta	$4f                     ; 0x4f <__rc31+0x2e>
    2cdb: a0 48        	ldy	#$48
    2cdd: 84 04        	sty	$4                      ; 0x4 <__rc2>
    2cdf: a0 00        	ldy	#$0
    2ce1: 84 05        	sty	$5                      ; 0x5 <__rc3>
    2ce3: a6 44        	ldx	$44                     ; 0x44 <__rc31+0x23>
    2ce5: 86 0e        	stx	$e                      ; 0xe <__rc12>
    2ce7: a6 45        	ldx	$45                     ; 0x45 <__rc31+0x24>
    2ce9: 86 0f        	stx	$f                      ; 0xf <__rc13>
    2ceb: a0 08        	ldy	#$8
    2ced: 4c ad 30     	jmp	$30ad <printf+0x9b9>
    2cf0: 49 80        	eor	#$80
    2cf2: 4c 8b 2b     	jmp	$2b8b <printf+0x497>
    2cf5: a6 46        	ldx	$46                     ; 0x46 <__rc31+0x25>
    2cf7: 86 07        	stx	$7                      ; 0x7 <__rc5>
    2cf9: a6 56        	ldx	$56                     ; 0x56 <__rc31+0x35>
    2cfb: 86 14        	stx	$14                     ; 0x14 <__rc18>
    2cfd: a6 55        	ldx	$55                     ; 0x55 <__rc31+0x34>
    2cff: 86 15        	stx	$15                     ; 0x15 <__rc19>
    2d01: a6 52        	ldx	$52                     ; 0x52 <__rc31+0x31>
    2d03: 86 04        	stx	$4                      ; 0x4 <__rc2>
    2d05: a6 53        	ldx	$53                     ; 0x53 <__rc31+0x32>
    2d07: 86 05        	stx	$5                      ; 0x5 <__rc3>
    2d09: a6 54        	ldx	$54                     ; 0x54 <__rc31+0x33>
    2d0b: 86 06        	stx	$6                      ; 0x6 <__rc4>
    2d0d: 4c 6a 2a     	jmp	$2a6a <printf+0x376>
    2d10: 38           	sec
    2d11: a9 00        	lda	#$0
    2d13: e5 08        	sbc	$8                      ; 0x8 <__rc6>
    2d15: 85 08        	sta	$8                      ; 0x8 <__rc6>
    2d17: a9 00        	lda	#$0
    2d19: e5 45        	sbc	$45                     ; 0x45 <__rc31+0x24>
    2d1b: 85 45        	sta	$45                     ; 0x45 <__rc31+0x24>
    2d1d: a5 06        	lda	$6                      ; 0x6 <__rc4>
    2d1f: 09 02        	ora	#$2
    2d21: 85 06        	sta	$6                      ; 0x6 <__rc4>
    2d23: 4c 82 29     	jmp	$2982 <printf+0x28e>
    2d26: a6 06        	ldx	$6                      ; 0x6 <__rc4>
    2d28: 86 54        	stx	$54                     ; 0x54 <__rc31+0x33>
    2d2a: a6 04        	ldx	$4                      ; 0x4 <__rc2>
    2d2c: 86 52        	stx	$52                     ; 0x52 <__rc31+0x31>
    2d2e: a6 05        	ldx	$5                      ; 0x5 <__rc3>
    2d30: 86 53        	stx	$53                     ; 0x53 <__rc31+0x32>
    2d32: a6 15        	ldx	$15                     ; 0x15 <__rc19>
    2d34: 86 55        	stx	$55                     ; 0x55 <__rc31+0x34>
    2d36: a6 14        	ldx	$14                     ; 0x14 <__rc18>
    2d38: 86 56        	stx	$56                     ; 0x56 <__rc31+0x35>
    2d3a: 64 42        	stz	$42                     ; 0x42 <__rc31+0x21>
    2d3c: 64 0c        	stz	$c                      ; 0xc <__rc10>
    2d3e: 64 0d        	stz	$d                      ; 0xd <__rc11>
    2d40: a6 08        	ldx	$8                      ; 0x8 <__rc6>
    2d42: 86 40        	stx	$40                     ; 0x40 <__rc31+0x1f>
    2d44: a6 09        	ldx	$9                      ; 0x9 <__rc7>
    2d46: 86 41        	stx	$41                     ; 0x41 <__rc31+0x20>
    2d48: a2 0a        	ldx	#$a
    2d4a: 4c 4c 27     	jmp	$274c <printf+0x58>
    2d4d: b2 04        	lda	($4),z                  ; 0x4 <__rc2>
    2d4f: 85 0c        	sta	$c                      ; 0xc <__rc10>
    2d51: c9 01        	cmp	#$1
    2d53: b1 04        	lda	($4),y                  ; 0x4 <__rc2>
    2d55: 85 0d        	sta	$d                      ; 0xd <__rc11>
    2d57: e9 00        	sbc	#$0
    2d59: 50 02        	bvc	$2d5d <printf+0x669>
    2d5b: 49 80        	eor	#$80
    2d5d: aa           	tax
    2d5e: 18           	clc
    2d5f: a5 04        	lda	$4                      ; 0x4 <__rc2>
    2d61: 69 02        	adc	#$2
    2d63: 85 04        	sta	$4                      ; 0x4 <__rc2>
    2d65: a5 05        	lda	$5                      ; 0x5 <__rc3>
    2d67: 69 00        	adc	#$0
    2d69: e0 00        	cpx	#$0
    2d6b: 10 04        	bpl	$2d71 <printf+0x67d>
    2d6d: 64 0c        	stz	$c                      ; 0xc <__rc10>
    2d6f: 64 0d        	stz	$d                      ; 0xd <__rc11>
    2d71: 85 05        	sta	$5                      ; 0x5 <__rc3>
    2d73: 18           	clc
    2d74: a5 40        	lda	$40                     ; 0x40 <__rc31+0x1f>
    2d76: 69 02        	adc	#$2
    2d78: 85 08        	sta	$8                      ; 0x8 <__rc6>
    2d7a: a5 41        	lda	$41                     ; 0x41 <__rc31+0x20>
    2d7c: 69 00        	adc	#$0
    2d7e: 85 09        	sta	$9                      ; 0x9 <__rc7>
    2d80: a6 46        	ldx	$46                     ; 0x46 <__rc31+0x25>
    2d82: 86 07        	stx	$7                      ; 0x7 <__rc5>
    2d84: a0 02        	ldy	#$2
    2d86: b1 40        	lda	($40),y                 ; 0x40 <__rc31+0x1f>
    2d88: a6 08        	ldx	$8                      ; 0x8 <__rc6>
    2d8a: 86 40        	stx	$40                     ; 0x40 <__rc31+0x1f>
    2d8c: a6 09        	ldx	$9                      ; 0x9 <__rc7>
    2d8e: 86 41        	stx	$41                     ; 0x41 <__rc31+0x20>
    2d90: 4c 6a 2a     	jmp	$2a6a <printf+0x376>
    2d93: a2 02        	ldx	#$2
    2d95: 4c fe 2a     	jmp	$2afe <printf+0x40a>
    2d98: a5 10        	lda	$10                     ; 0x10 <__rc14>
    2d9a: 29 02        	and	#$2
    2d9c: f0 03        	beq	$2da1 <printf+0x6ad>
    2d9e: 4c bd 2f     	jmp	$2fbd <printf+0x8c9>
    2da1: a4 44        	ldy	$44                     ; 0x44 <__rc31+0x23>
    2da3: a6 45        	ldx	$45                     ; 0x45 <__rc31+0x24>
    2da5: f0 03        	beq	$2daa <printf+0x6b6>
    2da7: 4c 39 31     	jmp	$3139 <printf+0xa45>
    2daa: c0 02        	cpy	#$2
    2dac: 90 03        	bcc	$2db1 <printf+0x6bd>
    2dae: 4c 40 31     	jmp	$3140 <printf+0xa4c>
    2db1: a5 04        	lda	$4                      ; 0x4 <__rc2>
    2db3: 18           	clc
    2db4: 69 02        	adc	#$2
    2db6: 85 06        	sta	$6                      ; 0x6 <__rc4>
    2db8: a5 05        	lda	$5                      ; 0x5 <__rc3>
    2dba: 69 00        	adc	#$0
    2dbc: 85 07        	sta	$7                      ; 0x7 <__rc5>
    2dbe: b2 04        	lda	($4),z                  ; 0x4 <__rc2>
    2dc0: a6 14        	ldx	$14                     ; 0x14 <__rc18>
    2dc2: e6 15        	inc	$15                     ; 0x15 <__rc19>
    2dc4: d0 01        	bne	$2dc7 <printf+0x6d3>
    2dc6: e8           	inx
    2dc7: 86 08        	stx	$8                      ; 0x8 <__rc6>
    2dc9: aa           	tax
    2dca: f0 03        	beq	$2dcf <printf+0x6db>
    2dcc: 4c ed 31     	jmp	$31ed <printf+0xaf9>
    2dcf: a5 15        	lda	$15                     ; 0x15 <__rc19>
    2dd1: 4c 3e 2a     	jmp	$2a3e <printf+0x34a>
    2dd4: a5 04        	lda	$4                      ; 0x4 <__rc2>
    2dd6: 18           	clc
    2dd7: 69 02        	adc	#$2
    2dd9: 85 42        	sta	$42                     ; 0x42 <__rc31+0x21>
    2ddb: a5 05        	lda	$5                      ; 0x5 <__rc3>
    2ddd: 69 00        	adc	#$0
    2ddf: 85 43        	sta	$43                     ; 0x43 <__rc31+0x22>
    2de1: b2 04        	lda	($4),z                  ; 0x4 <__rc2>
    2de3: 85 06        	sta	$6                      ; 0x6 <__rc4>
    2de5: b1 04        	lda	($4),y                  ; 0x4 <__rc2>
    2de7: a6 06        	ldx	$6                      ; 0x6 <__rc4>
    2de9: 86 48        	stx	$48                     ; 0x48 <__rc31+0x27>
    2deb: 85 49        	sta	$49                     ; 0x49 <__rc31+0x28>
    2ded: a5 10        	lda	$10                     ; 0x10 <__rc14>
    2def: 09 21        	ora	#$21
    2df1: a2 48        	ldx	#$48
    2df3: 86 04        	stx	$4                      ; 0x4 <__rc2>
    2df5: a2 00        	ldx	#$0
    2df7: 86 05        	stx	$5                      ; 0x5 <__rc3>
    2df9: 85 10        	sta	$10                     ; 0x10 <__rc14>
    2dfb: a2 02        	ldx	#$2
    2dfd: 86 06        	stx	$6                      ; 0x6 <__rc4>
    2dff: 64 07        	stz	$7                      ; 0x7 <__rc5>
    2e01: a2 10        	ldx	#$10
    2e03: 86 08        	stx	$8                      ; 0x8 <__rc6>
    2e05: 64 09        	stz	$9                      ; 0x9 <__rc7>
    2e07: 64 0a        	stz	$a                      ; 0xa <__rc8>
    2e09: 64 0b        	stz	$b                      ; 0xb <__rc9>
    2e0b: a2 04        	ldx	#$4
    2e0d: 86 0e        	stx	$e                      ; 0xe <__rc12>
    2e0f: 64 0f        	stz	$f                      ; 0xf <__rc13>
    2e11: 4c 2d 2a     	jmp	$2a2d <printf+0x339>
    2e14: b2 04        	lda	($4),z                  ; 0x4 <__rc2>
    2e16: 85 06        	sta	$6                      ; 0x6 <__rc4>
    2e18: b1 04        	lda	($4),y                  ; 0x4 <__rc2>
    2e1a: 85 07        	sta	$7                      ; 0x7 <__rc5>
    2e1c: a5 0d        	lda	$d                      ; 0xd <__rc11>
    2e1e: d0 07        	bne	$2e27 <printf+0x733>
    2e20: a5 0c        	lda	$c                      ; 0xc <__rc10>
    2e22: d0 03        	bne	$2e27 <printf+0x733>
    2e24: 4c 9d 31     	jmp	$319d <printf+0xaa9>
    2e27: a6 0c        	ldx	$c                      ; 0xc <__rc10>
    2e29: 86 0e        	stx	$e                      ; 0xe <__rc12>
    2e2b: a6 0d        	ldx	$d                      ; 0xd <__rc11>
    2e2d: 86 0f        	stx	$f                      ; 0xf <__rc13>
    2e2f: a4 11        	ldy	$11                     ; 0x11 <__rc15>
    2e31: b2 06        	lda	($6),z                  ; 0x6 <__rc4>
    2e33: a6 06        	ldx	$6                      ; 0x6 <__rc4>
    2e35: 86 08        	stx	$8                      ; 0x8 <__rc6>
    2e37: a6 07        	ldx	$7                      ; 0x7 <__rc5>
    2e39: 86 09        	stx	$9                      ; 0x9 <__rc7>
    2e3b: 85 42        	sta	$42                     ; 0x42 <__rc31+0x21>
    2e3d: aa           	tax
    2e3e: f0 13        	beq	$2e53 <printf+0x75f>
    2e40: a6 06        	ldx	$6                      ; 0x6 <__rc4>
    2e42: 86 0a        	stx	$a                      ; 0xa <__rc8>
    2e44: a6 07        	ldx	$7                      ; 0x7 <__rc5>
    2e46: 86 0b        	stx	$b                      ; 0xb <__rc9>
    2e48: a6 06        	ldx	$6                      ; 0x6 <__rc4>
    2e4a: 86 08        	stx	$8                      ; 0x8 <__rc6>
    2e4c: a6 07        	ldx	$7                      ; 0x7 <__rc5>
    2e4e: 86 09        	stx	$9                      ; 0x9 <__rc7>
    2e50: 4c 95 27     	jmp	$2795 <printf+0xa1>
    2e53: a5 08        	lda	$8                      ; 0x8 <__rc6>
    2e55: 38           	sec
    2e56: e5 06        	sbc	$6                      ; 0x6 <__rc4>
    2e58: aa           	tax
    2e59: a5 09        	lda	$9                      ; 0x9 <__rc7>
    2e5b: e5 07        	sbc	$7                      ; 0x7 <__rc5>
    2e5d: 85 08        	sta	$8                      ; 0x8 <__rc6>
    2e5f: 98           	tya
    2e60: 29 04        	and	#$4
    2e62: f0 13        	beq	$2e77 <printf+0x783>
    2e64: a4 08        	ldy	$8                      ; 0x8 <__rc6>
    2e66: c4 0d        	cpy	$d                      ; 0xd <__rc11>
    2e68: f0 03        	beq	$2e6d <printf+0x779>
    2e6a: 4c 4d 31     	jmp	$314d <printf+0xa59>
    2e6d: e4 0c        	cpx	$c                      ; 0xc <__rc10>
    2e6f: 90 06        	bcc	$2e77 <printf+0x783>
    2e71: a6 0d        	ldx	$d                      ; 0xd <__rc11>
    2e73: 86 08        	stx	$8                      ; 0x8 <__rc6>
    2e75: a6 0c        	ldx	$c                      ; 0xc <__rc10>
    2e77: 86 09        	stx	$9                      ; 0x9 <__rc7>
    2e79: 85 0e        	sta	$e                      ; 0xe <__rc12>
    2e7b: a5 10        	lda	$10                     ; 0x10 <__rc14>
    2e7d: 29 02        	and	#$2
    2e7f: 85 0f        	sta	$f                      ; 0xf <__rc13>
    2e81: d0 1e        	bne	$2ea1 <printf+0x7ad>
    2e83: a4 09        	ldy	$9                      ; 0x9 <__rc7>
    2e85: a6 08        	ldx	$8                      ; 0x8 <__rc6>
    2e87: c8           	iny
    2e88: d0 01        	bne	$2e8b <printf+0x797>
    2e8a: e8           	inx
    2e8b: a5 08        	lda	$8                      ; 0x8 <__rc6>
    2e8d: c5 45        	cmp	$45                     ; 0x45 <__rc31+0x24>
    2e8f: f0 03        	beq	$2e94 <printf+0x7a0>
    2e91: 4c 59 31     	jmp	$3159 <printf+0xa65>
    2e94: a5 09        	lda	$9                      ; 0x9 <__rc7>
    2e96: c5 44        	cmp	$44                     ; 0x44 <__rc31+0x23>
    2e98: b0 03        	bcs	$2e9d <printf+0x7a9>
    2e9a: 4c 66 31     	jmp	$3166 <printf+0xa72>
    2e9d: 84 09        	sty	$9                      ; 0x9 <__rc7>
    2e9f: 86 08        	stx	$8                      ; 0x8 <__rc6>
    2ea1: a4 44        	ldy	$44                     ; 0x44 <__rc31+0x23>
    2ea3: a6 45        	ldx	$45                     ; 0x45 <__rc31+0x24>
    2ea5: 86 10        	stx	$10                     ; 0x10 <__rc14>
    2ea7: 4c ca 30     	jmp	$30ca <printf+0x9d6>
    2eaa: a6 06        	ldx	$6                      ; 0x6 <__rc4>
    2eac: 86 10        	stx	$10                     ; 0x10 <__rc14>
    2eae: 80 10        	bra	$2ec0 <printf+0x7cc>
    2eb0: 85 0b        	sta	$b                      ; 0xb <__rc9>
    2eb2: a5 06        	lda	$6                      ; 0x6 <__rc4>
    2eb4: 09 80        	ora	#$80
    2eb6: 85 10        	sta	$10                     ; 0x10 <__rc14>
    2eb8: a6 08        	ldx	$8                      ; 0x8 <__rc6>
    2eba: 86 40        	stx	$40                     ; 0x40 <__rc31+0x1f>
    2ebc: a6 09        	ldx	$9                      ; 0x9 <__rc7>
    2ebe: 86 41        	stx	$41                     ; 0x41 <__rc31+0x20>
    2ec0: a5 07        	lda	$7                      ; 0x7 <__rc5>
    2ec2: 4c c5 2a     	jmp	$2ac5 <printf+0x3d1>
    2ec5: a6 15        	ldx	$15                     ; 0x15 <__rc19>
    2ec7: a4 14        	ldy	$14                     ; 0x14 <__rc18>
    2ec9: e8           	inx
    2eca: d0 01        	bne	$2ecd <printf+0x7d9>
    2ecc: c8           	iny
    2ecd: 84 08        	sty	$8                      ; 0x8 <__rc6>
    2ecf: a9 25        	lda	#$25
    2ed1: 20 d2 ff     	jsr	$ffd2 <__heap_start+0xbfed>
    2ed4: 8a           	txa
    2ed5: a6 04        	ldx	$4                      ; 0x4 <__rc2>
    2ed7: 86 06        	stx	$6                      ; 0x6 <__rc4>
    2ed9: a6 05        	ldx	$5                      ; 0x5 <__rc3>
    2edb: 86 07        	stx	$7                      ; 0x7 <__rc5>
    2edd: 4c 3e 2a     	jmp	$2a3e <printf+0x34a>
    2ee0: a2 10        	ldx	#$10
    2ee2: a0 01        	ldy	#$1
    2ee4: 4c ed 2a     	jmp	$2aed <printf+0x3f9>
    2ee7: 38           	sec
    2ee8: a9 00        	lda	#$0
    2eea: e5 07        	sbc	$7                      ; 0x7 <__rc5>
    2eec: 85 07        	sta	$7                      ; 0x7 <__rc5>
    2eee: a9 00        	lda	#$0
    2ef0: e5 42        	sbc	$42                     ; 0x42 <__rc31+0x21>
    2ef2: 85 42        	sta	$42                     ; 0x42 <__rc31+0x21>
    2ef4: a9 00        	lda	#$0
    2ef6: e5 09        	sbc	$9                      ; 0x9 <__rc7>
    2ef8: aa           	tax
    2ef9: a9 00        	lda	#$0
    2efb: e5 0a        	sbc	$a                      ; 0xa <__rc8>
    2efd: 85 0a        	sta	$a                      ; 0xa <__rc8>
    2eff: a9 00        	lda	#$0
    2f01: e5 0b        	sbc	$b                      ; 0xb <__rc9>
    2f03: 85 0b        	sta	$b                      ; 0xb <__rc9>
    2f05: a9 00        	lda	#$0
    2f07: e5 0e        	sbc	$e                      ; 0xe <__rc12>
    2f09: 85 0e        	sta	$e                      ; 0xe <__rc12>
    2f0b: a9 00        	lda	#$0
    2f0d: e5 0f        	sbc	$f                      ; 0xf <__rc13>
    2f0f: 85 0f        	sta	$f                      ; 0xf <__rc13>
    2f11: a9 00        	lda	#$0
    2f13: e5 06        	sbc	$6                      ; 0x6 <__rc4>
    2f15: a8           	tay
    2f16: 8a           	txa
    2f17: 4c de 29     	jmp	$29de <printf+0x2ea>
    2f1a: a5 0b        	lda	$b                      ; 0xb <__rc9>
    2f1c: a6 15        	ldx	$15                     ; 0x15 <__rc19>
    2f1e: a0 0a        	ldy	#$a
    2f20: c9 0a        	cmp	#$a
    2f22: d0 03        	bne	$2f27 <printf+0x833>
    2f24: 4c 0e 32     	jmp	$320e <printf+0xb1a>
    2f27: 20 d2 ff     	jsr	$ffd2 <__heap_start+0xbfed>
    2f2a: a5 04        	lda	$4                      ; 0x4 <__rc2>
    2f2c: 85 06        	sta	$6                      ; 0x6 <__rc4>
    2f2e: a5 05        	lda	$5                      ; 0x5 <__rc3>
    2f30: 85 07        	sta	$7                      ; 0x7 <__rc5>
    2f32: 8a           	txa
    2f33: 4c 40 2a     	jmp	$2a40 <printf+0x34c>
    2f36: 64 06        	stz	$6                      ; 0x6 <__rc4>
    2f38: e0 00        	cpx	#$0
    2f3a: f0 03        	beq	$2f3f <printf+0x84b>
    2f3c: 4c a2 2f     	jmp	$2fa2 <printf+0x8ae>
    2f3f: b2 04        	lda	($4),z                  ; 0x4 <__rc2>
    2f41: 85 07        	sta	$7                      ; 0x7 <__rc5>
    2f43: b1 04        	lda	($4),y                  ; 0x4 <__rc2>
    2f45: 85 06        	sta	$6                      ; 0x6 <__rc4>
    2f47: 4c a4 2f     	jmp	$2fa4 <printf+0x8b0>
    2f4a: a5 04        	lda	$4                      ; 0x4 <__rc2>
    2f4c: 18           	clc
    2f4d: 69 04        	adc	#$4
    2f4f: 85 46        	sta	$46                     ; 0x46 <__rc31+0x25>
    2f51: a5 05        	lda	$5                      ; 0x5 <__rc3>
    2f53: 69 00        	adc	#$0
    2f55: 85 47        	sta	$47                     ; 0x47 <__rc31+0x26>
    2f57: b2 04        	lda	($4),z                  ; 0x4 <__rc2>
    2f59: 85 07        	sta	$7                      ; 0x7 <__rc5>
    2f5b: b1 04        	lda	($4),y                  ; 0x4 <__rc2>
    2f5d: 85 06        	sta	$6                      ; 0x6 <__rc4>
    2f5f: a0 02        	ldy	#$2
    2f61: b1 04        	lda	($4),y                  ; 0x4 <__rc2>
    2f63: 85 09        	sta	$9                      ; 0x9 <__rc7>
    2f65: c8           	iny
    2f66: b1 04        	lda	($4),y                  ; 0x4 <__rc2>
    2f68: a6 07        	ldx	$7                      ; 0x7 <__rc5>
    2f6a: 86 48        	stx	$48                     ; 0x48 <__rc31+0x27>
    2f6c: a6 06        	ldx	$6                      ; 0x6 <__rc4>
    2f6e: 86 49        	stx	$49                     ; 0x49 <__rc31+0x28>
    2f70: a6 09        	ldx	$9                      ; 0x9 <__rc7>
    2f72: 86 4a        	stx	$4a                     ; 0x4a <__rc31+0x29>
    2f74: 85 4b        	sta	$4b                     ; 0x4b <__rc31+0x2a>
    2f76: a0 48        	ldy	#$48
    2f78: 84 04        	sty	$4                      ; 0x4 <__rc2>
    2f7a: a0 00        	ldy	#$0
    2f7c: 84 05        	sty	$5                      ; 0x5 <__rc3>
    2f7e: a6 44        	ldx	$44                     ; 0x44 <__rc31+0x23>
    2f80: 86 0e        	stx	$e                      ; 0xe <__rc12>
    2f82: a6 45        	ldx	$45                     ; 0x45 <__rc31+0x24>
    2f84: 86 0f        	stx	$f                      ; 0xf <__rc13>
    2f86: a0 04        	ldy	#$4
    2f88: 84 06        	sty	$6                      ; 0x6 <__rc4>
    2f8a: 64 07        	stz	$7                      ; 0x7 <__rc5>
    2f8c: 64 09        	stz	$9                      ; 0x9 <__rc7>
    2f8e: 64 0a        	stz	$a                      ; 0xa <__rc8>
    2f90: 64 0b        	stz	$b                      ; 0xb <__rc9>
    2f92: a6 14        	ldx	$14                     ; 0x14 <__rc18>
    2f94: a5 15        	lda	$15                     ; 0x15 <__rc19>
    2f96: 20 20 32     	jsr	$3220 <_ntoa>
    2f99: a4 46        	ldy	$46                     ; 0x46 <__rc31+0x25>
    2f9b: 84 06        	sty	$6                      ; 0x6 <__rc4>
    2f9d: a4 47        	ldy	$47                     ; 0x47 <__rc31+0x26>
    2f9f: 4c 3a 2a     	jmp	$2a3a <printf+0x346>
    2fa2: 85 07        	sta	$7                      ; 0x7 <__rc5>
    2fa4: a4 07        	ldy	$7                      ; 0x7 <__rc5>
    2fa6: c0 01        	cpy	#$1
    2fa8: a5 06        	lda	$6                      ; 0x6 <__rc4>
    2faa: e9 00        	sbc	#$0
    2fac: 50 02        	bvc	$2fb0 <printf+0x8bc>
    2fae: 49 80        	eor	#$80
    2fb0: aa           	tax
    2fb1: 10 03        	bpl	$2fb6 <printf+0x8c2>
    2fb3: 4c 47 30     	jmp	$3047 <printf+0x953>
    2fb6: a4 07        	ldy	$7                      ; 0x7 <__rc5>
    2fb8: a6 06        	ldx	$6                      ; 0x6 <__rc4>
    2fba: 4c 52 30     	jmp	$3052 <printf+0x95e>
    2fbd: a5 04        	lda	$4                      ; 0x4 <__rc2>
    2fbf: 18           	clc
    2fc0: 69 02        	adc	#$2
    2fc2: 85 06        	sta	$6                      ; 0x6 <__rc4>
    2fc4: a5 05        	lda	$5                      ; 0x5 <__rc3>
    2fc6: 69 00        	adc	#$0
    2fc8: 85 07        	sta	$7                      ; 0x7 <__rc5>
    2fca: a4 15        	ldy	$15                     ; 0x15 <__rc19>
    2fcc: a6 14        	ldx	$14                     ; 0x14 <__rc18>
    2fce: b2 04        	lda	($4),z                  ; 0x4 <__rc2>
    2fd0: c8           	iny
    2fd1: d0 01        	bne	$2fd4 <printf+0x8e0>
    2fd3: e8           	inx
    2fd4: c9 00        	cmp	#$0
    2fd6: f0 0a        	beq	$2fe2 <printf+0x8ee>
    2fd8: c9 0a        	cmp	#$a
    2fda: d0 03        	bne	$2fdf <printf+0x8eb>
    2fdc: 4c 13 32     	jmp	$3213 <printf+0xb1f>
    2fdf: 20 d2 ff     	jsr	$ffd2 <__heap_start+0xbfed>
    2fe2: a5 45        	lda	$45                     ; 0x45 <__rc31+0x24>
    2fe4: f0 03        	beq	$2fe9 <printf+0x8f5>
    2fe6: 4c 83 31     	jmp	$3183 <printf+0xa8f>
    2fe9: a5 44        	lda	$44                     ; 0x44 <__rc31+0x23>
    2feb: c9 02        	cmp	#$2
    2fed: 90 03        	bcc	$2ff2 <printf+0x8fe>
    2fef: 4c 8e 31     	jmp	$318e <printf+0xa9a>
    2ff2: 98           	tya
    2ff3: 4c 3c 2a     	jmp	$2a3c <printf+0x348>
    2ff6: 38           	sec
    2ff7: a9 00        	lda	#$0
    2ff9: e5 07        	sbc	$7                      ; 0x7 <__rc5>
    2ffb: a8           	tay
    2ffc: a9 00        	lda	#$0
    2ffe: e5 0a        	sbc	$a                      ; 0xa <__rc8>
    3000: 85 07        	sta	$7                      ; 0x7 <__rc5>
    3002: a9 00        	lda	#$0
    3004: e5 09        	sbc	$9                      ; 0x9 <__rc7>
    3006: 85 09        	sta	$9                      ; 0x9 <__rc7>
    3008: a9 00        	lda	#$0
    300a: e5 06        	sbc	$6                      ; 0x6 <__rc4>
    300c: aa           	tax
    300d: a5 07        	lda	$7                      ; 0x7 <__rc5>
    300f: 84 48        	sty	$48                     ; 0x48 <__rc31+0x27>
    3011: 85 49        	sta	$49                     ; 0x49 <__rc31+0x28>
    3013: a4 09        	ldy	$9                      ; 0x9 <__rc7>
    3015: 84 4a        	sty	$4a                     ; 0x4a <__rc31+0x29>
    3017: 86 4b        	stx	$4b                     ; 0x4b <__rc31+0x2a>
    3019: a5 04        	lda	$4                      ; 0x4 <__rc2>
    301b: 18           	clc
    301c: 69 04        	adc	#$4
    301e: 85 42        	sta	$42                     ; 0x42 <__rc31+0x21>
    3020: a5 05        	lda	$5                      ; 0x5 <__rc3>
    3022: 69 00        	adc	#$0
    3024: a6 06        	ldx	$6                      ; 0x6 <__rc4>
    3026: 10 04        	bpl	$302c <printf+0x938>
    3028: a0 01        	ldy	#$1
    302a: 80 02        	bra	$302e <printf+0x93a>
    302c: a0 00        	ldy	#$0
    302e: 85 43        	sta	$43                     ; 0x43 <__rc31+0x22>
    3030: a9 48        	lda	#$48
    3032: 85 04        	sta	$4                      ; 0x4 <__rc2>
    3034: a9 00        	lda	#$0
    3036: 85 05        	sta	$5                      ; 0x5 <__rc3>
    3038: a6 44        	ldx	$44                     ; 0x44 <__rc31+0x23>
    303a: 86 0e        	stx	$e                      ; 0xe <__rc12>
    303c: a6 45        	ldx	$45                     ; 0x45 <__rc31+0x24>
    303e: 86 0f        	stx	$f                      ; 0xf <__rc13>
    3040: 84 07        	sty	$7                      ; 0x7 <__rc5>
    3042: a0 04        	ldy	#$4
    3044: 4c 25 2a     	jmp	$2a25 <printf+0x331>
    3047: 38           	sec
    3048: a9 00        	lda	#$0
    304a: e5 07        	sbc	$7                      ; 0x7 <__rc5>
    304c: a8           	tay
    304d: a9 00        	lda	#$0
    304f: e5 06        	sbc	$6                      ; 0x6 <__rc4>
    3051: aa           	tax
    3052: 84 48        	sty	$48                     ; 0x48 <__rc31+0x27>
    3054: 86 49        	stx	$49                     ; 0x49 <__rc31+0x28>
    3056: a5 04        	lda	$4                      ; 0x4 <__rc2>
    3058: 18           	clc
    3059: 69 02        	adc	#$2
    305b: 85 42        	sta	$42                     ; 0x42 <__rc31+0x21>
    305d: a5 05        	lda	$5                      ; 0x5 <__rc3>
    305f: 69 00        	adc	#$0
    3061: a6 06        	ldx	$6                      ; 0x6 <__rc4>
    3063: 10 04        	bpl	$3069 <printf+0x975>
    3065: a0 01        	ldy	#$1
    3067: 80 02        	bra	$306b <printf+0x977>
    3069: a0 00        	ldy	#$0
    306b: 85 43        	sta	$43                     ; 0x43 <__rc31+0x22>
    306d: a9 48        	lda	#$48
    306f: 85 04        	sta	$4                      ; 0x4 <__rc2>
    3071: a9 00        	lda	#$0
    3073: 85 05        	sta	$5                      ; 0x5 <__rc3>
    3075: a6 44        	ldx	$44                     ; 0x44 <__rc31+0x23>
    3077: 86 0e        	stx	$e                      ; 0xe <__rc12>
    3079: a6 45        	ldx	$45                     ; 0x45 <__rc31+0x24>
    307b: 86 0f        	stx	$f                      ; 0xf <__rc13>
    307d: 84 07        	sty	$7                      ; 0x7 <__rc5>
    307f: a0 02        	ldy	#$2
    3081: 4c 25 2a     	jmp	$2a25 <printf+0x331>
    3084: 64 06        	stz	$6                      ; 0x6 <__rc4>
    3086: 18           	clc
    3087: a5 04        	lda	$4                      ; 0x4 <__rc2>
    3089: 69 02        	adc	#$2
    308b: 85 42        	sta	$42                     ; 0x42 <__rc31+0x21>
    308d: a5 05        	lda	$5                      ; 0x5 <__rc3>
    308f: 69 00        	adc	#$0
    3091: 85 43        	sta	$43                     ; 0x43 <__rc31+0x22>
    3093: b2 04        	lda	($4),z                  ; 0x4 <__rc2>
    3095: 85 48        	sta	$48                     ; 0x48 <__rc31+0x27>
    3097: a6 06        	ldx	$6                      ; 0x6 <__rc4>
    3099: 86 49        	stx	$49                     ; 0x49 <__rc31+0x28>
    309b: a0 48        	ldy	#$48
    309d: 84 04        	sty	$4                      ; 0x4 <__rc2>
    309f: a0 00        	ldy	#$0
    30a1: 84 05        	sty	$5                      ; 0x5 <__rc3>
    30a3: a6 44        	ldx	$44                     ; 0x44 <__rc31+0x23>
    30a5: 86 0e        	stx	$e                      ; 0xe <__rc12>
    30a7: a6 45        	ldx	$45                     ; 0x45 <__rc31+0x24>
    30a9: 86 0f        	stx	$f                      ; 0xf <__rc13>
    30ab: a0 02        	ldy	#$2
    30ad: 84 06        	sty	$6                      ; 0x6 <__rc4>
    30af: 64 07        	stz	$7                      ; 0x7 <__rc5>
    30b1: 4c 27 2a     	jmp	$2a27 <printf+0x333>
    30b4: a6 45        	ldx	$45                     ; 0x45 <__rc31+0x24>
    30b6: 86 10        	stx	$10                     ; 0x10 <__rc14>
    30b8: a6 45        	ldx	$45                     ; 0x45 <__rc31+0x24>
    30ba: 86 08        	stx	$8                      ; 0x8 <__rc6>
    30bc: a4 44        	ldy	$44                     ; 0x44 <__rc31+0x23>
    30be: 84 09        	sty	$9                      ; 0x9 <__rc7>
    30c0: e6 09        	inc	$9                      ; 0x9 <__rc7>
    30c2: d0 02        	bne	$30c6 <printf+0x9d2>
    30c4: e6 08        	inc	$8                      ; 0x8 <__rc6>
    30c6: b2 06        	lda	($6),z                  ; 0x6 <__rc4>
    30c8: 85 42        	sta	$42                     ; 0x42 <__rc31+0x21>
    30ca: a5 04        	lda	$4                      ; 0x4 <__rc2>
    30cc: 18           	clc
    30cd: 69 02        	adc	#$2
    30cf: 85 11        	sta	$11                     ; 0x11 <__rc15>
    30d1: a5 05        	lda	$5                      ; 0x5 <__rc3>
    30d3: 69 00        	adc	#$0
    30d5: 85 43        	sta	$43                     ; 0x43 <__rc31+0x22>
    30d7: a5 42        	lda	$42                     ; 0x42 <__rc31+0x21>
    30d9: d0 03        	bne	$30de <printf+0x9ea>
    30db: 4c af 31     	jmp	$31af <printf+0xabb>
    30de: a6 06        	ldx	$6                      ; 0x6 <__rc4>
    30e0: 86 0a        	stx	$a                      ; 0xa <__rc8>
    30e2: a6 07        	ldx	$7                      ; 0x7 <__rc5>
    30e4: 86 0b        	stx	$b                      ; 0xb <__rc9>
    30e6: 4c 49 29     	jmp	$2949 <printf+0x255>
    30e9: 18           	clc
    30ea: a5 44        	lda	$44                     ; 0x44 <__rc31+0x23>
    30ec: 65 05        	adc	$5                      ; 0x5 <__rc3>
    30ee: aa           	tax
    30ef: a5 45        	lda	$45                     ; 0x45 <__rc31+0x24>
    30f1: 65 04        	adc	$4                      ; 0x4 <__rc2>
    30f3: 85 04        	sta	$4                      ; 0x4 <__rc2>
    30f5: 38           	sec
    30f6: 8a           	txa
    30f7: e5 09        	sbc	$9                      ; 0x9 <__rc7>
    30f9: aa           	tax
    30fa: a5 04        	lda	$4                      ; 0x4 <__rc2>
    30fc: e5 08        	sbc	$8                      ; 0x8 <__rc6>
    30fe: 80 0a        	bra	$310a <printf+0xa16>
    3100: 18           	clc
    3101: a5 44        	lda	$44                     ; 0x44 <__rc31+0x23>
    3103: 65 15        	adc	$15                     ; 0x15 <__rc19>
    3105: aa           	tax
    3106: a5 45        	lda	$45                     ; 0x45 <__rc31+0x24>
    3108: 65 14        	adc	$14                     ; 0x14 <__rc18>
    310a: 85 08        	sta	$8                      ; 0x8 <__rc6>
    310c: 8a           	txa
    310d: 4c 3e 2a     	jmp	$2a3e <printf+0x34a>
    3110: a5 04        	lda	$4                      ; 0x4 <__rc2>
    3112: 18           	clc
    3113: 69 02        	adc	#$2
    3115: 85 06        	sta	$6                      ; 0x6 <__rc4>
    3117: a5 05        	lda	$5                      ; 0x5 <__rc3>
    3119: 69 00        	adc	#$0
    311b: 85 07        	sta	$7                      ; 0x7 <__rc5>
    311d: b2 04        	lda	($4),z                  ; 0x4 <__rc2>
    311f: 85 04        	sta	$4                      ; 0x4 <__rc2>
    3121: 18           	clc
    3122: a5 44        	lda	$44                     ; 0x44 <__rc31+0x23>
    3124: 65 15        	adc	$15                     ; 0x15 <__rc19>
    3126: aa           	tax
    3127: a5 45        	lda	$45                     ; 0x45 <__rc31+0x24>
    3129: 65 14        	adc	$14                     ; 0x14 <__rc18>
    312b: a4 04        	ldy	$4                      ; 0x4 <__rc2>
    312d: f0 03        	beq	$3132 <printf+0xa3e>
    312f: 4c f9 31     	jmp	$31f9 <printf+0xb05>
    3132: 85 08        	sta	$8                      ; 0x8 <__rc6>
    3134: a0 0a        	ldy	#$a
    3136: 4c 32 2f     	jmp	$2f32 <printf+0x83e>
    3139: e0 00        	cpx	#$0
    313b: b0 03        	bcs	$3140 <printf+0xa4c>
    313d: 4c b1 2d     	jmp	$2db1 <printf+0x6bd>
    3140: 98           	tya
    3141: 88           	dey
    3142: c9 00        	cmp	#$0
    3144: f0 03        	beq	$3149 <printf+0xa55>
    3146: 4c 18 28     	jmp	$2818 <printf+0x124>
    3149: ca           	dex
    314a: 4c 18 28     	jmp	$2818 <printf+0x124>
    314d: a4 08        	ldy	$8                      ; 0x8 <__rc6>
    314f: c4 0d        	cpy	$d                      ; 0xd <__rc11>
    3151: 90 03        	bcc	$3156 <printf+0xa62>
    3153: 4c 71 2e     	jmp	$2e71 <printf+0x77d>
    3156: 4c 77 2e     	jmp	$2e77 <printf+0x783>
    3159: a5 45        	lda	$45                     ; 0x45 <__rc31+0x24>
    315b: 85 0b        	sta	$b                      ; 0xb <__rc9>
    315d: a5 08        	lda	$8                      ; 0x8 <__rc6>
    315f: c5 0b        	cmp	$b                      ; 0xb <__rc9>
    3161: 90 03        	bcc	$3166 <printf+0xa72>
    3163: 4c 9d 2e     	jmp	$2e9d <printf+0x7a9>
    3166: a5 44        	lda	$44                     ; 0x44 <__rc31+0x23>
    3168: 38           	sec
    3169: e5 09        	sbc	$9                      ; 0x9 <__rc7>
    316b: 85 09        	sta	$9                      ; 0x9 <__rc7>
    316d: a5 45        	lda	$45                     ; 0x45 <__rc31+0x24>
    316f: e5 08        	sbc	$8                      ; 0x8 <__rc6>
    3171: a8           	tay
    3172: a6 09        	ldx	$9                      ; 0x9 <__rc7>
    3174: a5 09        	lda	$9                      ; 0x9 <__rc7>
    3176: 18           	clc
    3177: 65 15        	adc	$15                     ; 0x15 <__rc19>
    3179: 85 15        	sta	$15                     ; 0x15 <__rc19>
    317b: 98           	tya
    317c: 65 14        	adc	$14                     ; 0x14 <__rc18>
    317e: 85 14        	sta	$14                     ; 0x14 <__rc18>
    3180: 4c cb 27     	jmp	$27cb <printf+0xd7>
    3183: a5 45        	lda	$45                     ; 0x45 <__rc31+0x24>
    3185: c9 00        	cmp	#$0
    3187: a5 44        	lda	$44                     ; 0x44 <__rc31+0x23>
    3189: b0 03        	bcs	$318e <printf+0xa9a>
    318b: 4c f2 2f     	jmp	$2ff2 <printf+0x8fe>
    318e: a6 45        	ldx	$45                     ; 0x45 <__rc31+0x24>
    3190: a8           	tay
    3191: 88           	dey
    3192: c9 00        	cmp	#$0
    3194: f0 03        	beq	$3199 <printf+0xaa5>
    3196: 4c 03 28     	jmp	$2803 <printf+0x10f>
    3199: ca           	dex
    319a: 4c 03 28     	jmp	$2803 <printf+0x10f>
    319d: a2 ff        	ldx	#$ff
    319f: 86 0e        	stx	$e                      ; 0xe <__rc12>
    31a1: 4c 2d 2e     	jmp	$2e2d <printf+0x739>
    31a4: a9 0d        	lda	#$d
    31a6: 4c 22 27     	jmp	$2722 <printf+0x2e>
    31a9: a6 45        	ldx	$45                     ; 0x45 <__rc31+0x24>
    31ab: 86 10        	stx	$10                     ; 0x10 <__rc14>
    31ad: a4 44        	ldy	$44                     ; 0x44 <__rc31+0x23>
    31af: a6 15        	ldx	$15                     ; 0x15 <__rc19>
    31b1: 86 05        	stx	$5                      ; 0x5 <__rc3>
    31b3: a6 14        	ldx	$14                     ; 0x14 <__rc18>
    31b5: 86 04        	stx	$4                      ; 0x4 <__rc2>
    31b7: a6 11        	ldx	$11                     ; 0x11 <__rc15>
    31b9: 86 06        	stx	$6                      ; 0x6 <__rc4>
    31bb: a6 43        	ldx	$43                     ; 0x43 <__rc31+0x22>
    31bd: 86 07        	stx	$7                      ; 0x7 <__rc5>
    31bf: a5 0f        	lda	$f                      ; 0xf <__rc13>
    31c1: d0 07        	bne	$31ca <printf+0xad6>
    31c3: a5 05        	lda	$5                      ; 0x5 <__rc3>
    31c5: a6 04        	ldx	$4                      ; 0x4 <__rc2>
    31c7: 4c 3c 2a     	jmp	$2a3c <printf+0x348>
    31ca: a6 08        	ldx	$8                      ; 0x8 <__rc6>
    31cc: e4 10        	cpx	$10                     ; 0x10 <__rc14>
    31ce: d0 0a        	bne	$31da <printf+0xae6>
    31d0: a6 09        	ldx	$9                      ; 0x9 <__rc7>
    31d2: 84 0a        	sty	$a                      ; 0xa <__rc8>
    31d4: e4 0a        	cpx	$a                      ; 0xa <__rc8>
    31d6: b0 eb        	bcs	$31c3 <printf+0xacf>
    31d8: 80 06        	bra	$31e0 <printf+0xaec>
    31da: a6 08        	ldx	$8                      ; 0x8 <__rc6>
    31dc: e4 10        	cpx	$10                     ; 0x10 <__rc14>
    31de: b0 e3        	bcs	$31c3 <printf+0xacf>
    31e0: 98           	tya
    31e1: 38           	sec
    31e2: e5 09        	sbc	$9                      ; 0x9 <__rc7>
    31e4: aa           	tax
    31e5: a5 45        	lda	$45                     ; 0x45 <__rc31+0x24>
    31e7: e5 08        	sbc	$8                      ; 0x8 <__rc6>
    31e9: a8           	tay
    31ea: 4c e6 27     	jmp	$27e6 <printf+0xf2>
    31ed: a0 0a        	ldy	#$a
    31ef: c9 0a        	cmp	#$a
    31f1: f0 25        	beq	$3218 <printf+0xb24>
    31f3: 20 d2 ff     	jsr	$ffd2 <__heap_start+0xbfed>
    31f6: 4c 12 2c     	jmp	$2c12 <printf+0x51e>
    31f9: 85 08        	sta	$8                      ; 0x8 <__rc6>
    31fb: a0 0a        	ldy	#$a
    31fd: a5 04        	lda	$4                      ; 0x4 <__rc2>
    31ff: c9 0a        	cmp	#$a
    3201: f0 19        	beq	$321c <printf+0xb28>
    3203: 20 d2 ff     	jsr	$ffd2 <__heap_start+0xbfed>
    3206: 4c 32 2f     	jmp	$2f32 <printf+0x83e>
    3209: a9 0d        	lda	#$d
    320b: 4c 0d 29     	jmp	$290d <printf+0x219>
    320e: a9 0d        	lda	#$d
    3210: 4c 27 2f     	jmp	$2f27 <printf+0x833>
    3213: a9 0d        	lda	#$d
    3215: 4c df 2f     	jmp	$2fdf <printf+0x8eb>
    3218: a9 0d        	lda	#$d
    321a: 80 d7        	bra	$31f3 <printf+0xaff>
    321c: a9 0d        	lda	#$d
    321e: 80 e3        	bra	$3203 <printf+0xb0f>

00003220 <_ntoa>:
    3220: 85 5e        	sta	$5e                     ; 0x5e <__rc31+0x3d>
    3222: 86 5d        	stx	$5d                     ; 0x5d <__rc31+0x3c>
    3224: a6 06        	ldx	$6                      ; 0x6 <__rc4>
    3226: 86 5c        	stx	$5c                     ; 0x5c <__rc31+0x3b>
    3228: a5 07        	lda	$7                      ; 0x7 <__rc5>
    322a: a6 08        	ldx	$8                      ; 0x8 <__rc6>
    322c: 86 60        	stx	$60                     ; 0x60 <__rc31+0x3f>
    322e: a6 09        	ldx	$9                      ; 0x9 <__rc7>
    3230: 86 57        	stx	$57                     ; 0x57 <__rc31+0x36>
    3232: a6 0c        	ldx	$c                      ; 0xc <__rc10>
    3234: 86 58        	stx	$58                     ; 0x58 <__rc31+0x37>
    3236: a6 0d        	ldx	$d                      ; 0xd <__rc11>
    3238: 86 59        	stx	$59                     ; 0x59 <__rc31+0x38>
    323a: a6 0e        	ldx	$e                      ; 0xe <__rc12>
    323c: 86 5b        	stx	$5b                     ; 0x5b <__rc31+0x3a>
    323e: a6 0f        	ldx	$f                      ; 0xf <__rc13>
    3240: 86 5a        	stx	$5a                     ; 0x5a <__rc31+0x39>
    3242: a6 10        	ldx	$10                     ; 0x10 <__rc14>
    3244: 86 5f        	stx	$5f                     ; 0x5f <__rc31+0x3e>
    3246: a6 11        	ldx	$11                     ; 0x11 <__rc15>
    3248: 86 61        	stx	$61                     ; 0x61 <__rc31+0x40>
    324a: 29 01        	and	#$1
    324c: 85 6f        	sta	$6f                     ; 0x6f <__rc31+0x4e>
    324e: a6 04        	ldx	$4                      ; 0x4 <__rc2>
    3250: 86 06        	stx	$6                      ; 0x6 <__rc4>
    3252: a6 05        	ldx	$5                      ; 0x5 <__rc3>
    3254: 86 07        	stx	$7                      ; 0x7 <__rc5>
    3256: a2 63        	ldx	#$63
    3258: a0 00        	ldy	#$0
    325a: 86 04        	stx	$4                      ; 0x4 <__rc2>
    325c: 84 05        	sty	$5                      ; 0x5 <__rc3>
    325e: a2 00        	ldx	#$0
    3260: a0 00        	ldy	#$0
    3262: 84 6e        	sty	$6e                     ; 0x6e <__rc31+0x4d>
    3264: a5 5c        	lda	$5c                     ; 0x5c <__rc31+0x3b>
    3266: 20 fc 39     	jsr	$39fc <memcpy>
    3269: a6 63        	ldx	$63                     ; 0x63 <__rc31+0x42>
    326b: a5 61        	lda	$61                     ; 0x61 <__rc31+0x40>
    326d: 29 04        	and	#$4
    326f: 85 05        	sta	$5                      ; 0x5 <__rc3>
    3271: 8a           	txa
    3272: f0 0a        	beq	$327e <_ntoa+0x5e>
    3274: a2 01        	ldx	#$1
    3276: a5 05        	lda	$5                      ; 0x5 <__rc3>
    3278: f0 2c        	beq	$32a6 <_ntoa+0x86>
    327a: a2 00        	ldx	#$0
    327c: 80 28        	bra	$32a6 <_ntoa+0x86>
    327e: a2 00        	ldx	#$0
    3280: a4 5c        	ldy	$5c                     ; 0x5c <__rc31+0x3b>
    3282: 88           	dey
    3283: 86 04        	stx	$4                      ; 0x4 <__rc2>
    3285: c4 04        	cpy	$4                      ; 0x4 <__rc2>
    3287: f0 0b        	beq	$3294 <_ntoa+0x74>
    3289: b5 64        	lda	$64,x                   ; 0x64 <__rc31+0x43>
    328b: e8           	inx
    328c: c9 00        	cmp	#$0
    328e: f0 f3        	beq	$3283 <_ntoa+0x63>
    3290: e4 5c        	cpx	$5c                     ; 0x5c <__rc31+0x3b>
    3292: 90 e0        	bcc	$3274 <_ntoa+0x54>
    3294: a2 01        	ldx	#$1
    3296: b8           	clv
    3297: a5 5f        	lda	$5f                     ; 0x5f <__rc31+0x3e>
    3299: 29 ef        	and	#$ef
    329b: 85 5f        	sta	$5f                     ; 0x5f <__rc31+0x3e>
    329d: 64 06        	stz	$6                      ; 0x6 <__rc4>
    329f: a5 05        	lda	$5                      ; 0x5 <__rc3>
    32a1: f0 03        	beq	$32a6 <_ntoa+0x86>
    32a3: 4c cc 33     	jmp	$33cc <_ntoa+0x1ac>
    32a6: 86 09        	stx	$9                      ; 0x9 <__rc7>
    32a8: a0 01        	ldy	#$1
    32aa: 9c e7 3d     	stz	$3de7                   ; 0x3de7 <__data_load_start+0x2ff>
    32ad: a5 5c        	lda	$5c                     ; 0x5c <__rc31+0x3b>
    32af: 0a           	asl
    32b0: 64 05        	stz	$5                      ; 0x5 <__rc3>
    32b2: 26 05        	rol	$5                      ; 0x5 <__rc3>
    32b4: 0a           	asl
    32b5: 26 05        	rol	$5                      ; 0x5 <__rc3>
    32b7: 0a           	asl
    32b8: 85 04        	sta	$4                      ; 0x4 <__rc2>
    32ba: 26 05        	rol	$5                      ; 0x5 <__rc3>
    32bc: a2 00        	ldx	#$0
    32be: 86 0a        	stx	$a                      ; 0xa <__rc8>
    32c0: 98           	tya
    32c1: f0 44        	beq	$3307 <_ntoa+0xe7>
    32c3: 84 08        	sty	$8                      ; 0x8 <__rc6>
    32c5: a2 00        	ldx	#$0
    32c7: a0 00        	ldy	#$0
    32c9: 80 08        	bra	$32d3 <_ntoa+0xb3>
    32cb: 9d e7 3d     	sta	$3de7,x                 ; 0x3de7 <__data_load_start+0x2ff>
    32ce: e8           	inx
    32cf: e4 08        	cpx	$8                      ; 0x8 <__rc6>
    32d1: f0 42        	beq	$3315 <_ntoa+0xf5>
    32d3: bd e7 3d     	lda	$3de7,x                 ; 0x3de7 <__data_load_start+0x2ff>
    32d6: 0a           	asl
    32d7: c0 00        	cpy	#$0
    32d9: f0 02        	beq	$32dd <_ntoa+0xbd>
    32db: 09 01        	ora	#$1
    32dd: c5 60        	cmp	$60                     ; 0x60 <__rc31+0x3f>
    32df: a0 01        	ldy	#$1
    32e1: b0 02        	bcs	$32e5 <_ntoa+0xc5>
    32e3: a0 00        	ldy	#$0
    32e5: 90 e4        	bcc	$32cb <_ntoa+0xab>
    32e7: 5a           	phy
    32e8: a4 60        	ldy	$60                     ; 0x60 <__rc31+0x3f>
    32ea: 84 07        	sty	$7                      ; 0x7 <__rc5>
    32ec: 7a           	ply
    32ed: 38           	sec
    32ee: e5 07        	sbc	$7                      ; 0x7 <__rc5>
    32f0: 9d e7 3d     	sta	$3de7,x                 ; 0x3de7 <__data_load_start+0x2ff>
    32f3: e8           	inx
    32f4: e4 08        	cpx	$8                      ; 0x8 <__rc6>
    32f6: d0 db        	bne	$32d3 <_ntoa+0xb3>
    32f8: a6 08        	ldx	$8                      ; 0x8 <__rc6>
    32fa: 86 06        	stx	$6                      ; 0x6 <__rc4>
    32fc: e6 06        	inc	$6                      ; 0x6 <__rc4>
    32fe: a9 01        	lda	#$1
    3300: 9d e7 3d     	sta	$3de7,x                 ; 0x3de7 <__data_load_start+0x2ff>
    3303: a4 06        	ldy	$6                      ; 0x6 <__rc4>
    3305: 80 10        	bra	$3317 <_ntoa+0xf7>
    3307: a6 5c        	ldx	$5c                     ; 0x5c <__rc31+0x3b>
    3309: b5 62        	lda	$62,x                   ; 0x62 <__rc31+0x41>
    330b: a0 00        	ldy	#$0
    330d: a2 00        	ldx	#$0
    330f: c9 00        	cmp	#$0
    3311: 10 3c        	bpl	$334f <_ntoa+0x12f>
    3313: 80 32        	bra	$3347 <_ntoa+0x127>
    3315: a4 08        	ldy	$8                      ; 0x8 <__rc6>
    3317: a6 5c        	ldx	$5c                     ; 0x5c <__rc31+0x3b>
    3319: b5 62        	lda	$62,x                   ; 0x62 <__rc31+0x41>
    331b: aa           	tax
    331c: 10 31        	bpl	$334f <_ntoa+0x12f>
    331e: a2 00        	ldx	#$0
    3320: 98           	tya
    3321: f0 24        	beq	$3347 <_ntoa+0x127>
    3323: a2 e7        	ldx	#$e7
    3325: 86 06        	stx	$6                      ; 0x6 <__rc4>
    3327: a2 3d        	ldx	#$3d
    3329: 86 07        	stx	$7                      ; 0x7 <__rc5>
    332b: 5a           	phy
    332c: fa           	plx
    332d: b2 06        	lda	($6),z                  ; 0x6 <__rc4>
    332f: 1a           	inc
    3330: c5 60        	cmp	$60                     ; 0x60 <__rc31+0x3f>
    3332: f0 03        	beq	$3337 <_ntoa+0x117>
    3334: 4c 66 34     	jmp	$3466 <_ntoa+0x246>
    3337: a9 00        	lda	#$0
    3339: 92 06        	sta	($6),z                  ; 0x6 <__rc4>
    333b: e6 06        	inc	$6                      ; 0x6 <__rc4>
    333d: d0 02        	bne	$3341 <_ntoa+0x121>
    333f: e6 07        	inc	$7                      ; 0x7 <__rc5>
    3341: ca           	dex
    3342: d0 e9        	bne	$332d <_ntoa+0x10d>
    3344: 4c 6b 34     	jmp	$346b <_ntoa+0x24b>
    3347: da           	phx
    3348: 7a           	ply
    3349: c8           	iny
    334a: a9 01        	lda	#$1
    334c: 9d e7 3d     	sta	$3de7,x                 ; 0x3de7 <__data_load_start+0x2ff>
    334f: 64 06        	stz	$6                      ; 0x6 <__rc4>
    3351: a2 00        	ldx	#$0
    3353: b5 63        	lda	$63,x                   ; 0x63 <__rc31+0x42>
    3355: 0a           	asl
    3356: 64 07        	stz	$7                      ; 0x7 <__rc5>
    3358: 26 07        	rol	$7                      ; 0x7 <__rc5>
    335a: 05 06        	ora	$6                      ; 0x6 <__rc4>
    335c: 9d 63 00     	sta	$63,x                   ; 0x63 <__rc31+0x42>
    335f: e8           	inx
    3360: a5 07        	lda	$7                      ; 0x7 <__rc5>
    3362: 85 06        	sta	$6                      ; 0x6 <__rc4>
    3364: e4 5c        	cpx	$5c                     ; 0x5c <__rc31+0x3b>
    3366: d0 eb        	bne	$3353 <_ntoa+0x133>
    3368: a6 0a        	ldx	$a                      ; 0xa <__rc8>
    336a: e8           	inx
    336b: a9 00        	lda	#$0
    336d: c5 05        	cmp	$5                      ; 0x5 <__rc3>
    336f: d0 07        	bne	$3378 <_ntoa+0x158>
    3371: e4 04        	cpx	$4                      ; 0x4 <__rc2>
    3373: b0 0a        	bcs	$337f <_ntoa+0x15f>
    3375: 4c be 32     	jmp	$32be <_ntoa+0x9e>
    3378: c5 05        	cmp	$5                      ; 0x5 <__rc3>
    337a: b0 03        	bcs	$337f <_ntoa+0x15f>
    337c: 4c be 32     	jmp	$32be <_ntoa+0x9e>
    337f: 98           	tya
    3380: f0 35        	beq	$33b7 <_ntoa+0x197>
    3382: a2 00        	ldx	#$0
    3384: a5 5f        	lda	$5f                     ; 0x5f <__rc31+0x3e>
    3386: 29 20        	and	#$20
    3388: 49 61        	eor	#$61
    338a: 85 05        	sta	$5                      ; 0x5 <__rc3>
    338c: 80 14        	bra	$33a2 <_ntoa+0x182>
    338e: 85 04        	sta	$4                      ; 0x4 <__rc2>
    3390: a5 05        	lda	$5                      ; 0x5 <__rc3>
    3392: 18           	clc
    3393: 65 04        	adc	$4                      ; 0x4 <__rc2>
    3395: 18           	clc
    3396: 69 f6        	adc	#$f6
    3398: 9d e7 3d     	sta	$3de7,x                 ; 0x3de7 <__data_load_start+0x2ff>
    339b: e8           	inx
    339c: 86 04        	stx	$4                      ; 0x4 <__rc2>
    339e: c4 04        	cpy	$4                      ; 0x4 <__rc2>
    33a0: f0 0c        	beq	$33ae <_ntoa+0x18e>
    33a2: bd e7 3d     	lda	$3de7,x                 ; 0x3de7 <__data_load_start+0x2ff>
    33a5: c9 0a        	cmp	#$a
    33a7: b0 e5        	bcs	$338e <_ntoa+0x16e>
    33a9: 18           	clc
    33aa: 69 30        	adc	#$30
    33ac: 80 ea        	bra	$3398 <_ntoa+0x178>
    33ae: a6 09        	ldx	$9                      ; 0x9 <__rc7>
    33b0: f0 0e        	beq	$33c0 <_ntoa+0x1a0>
    33b2: 2c 48 3a     	bit	$3a48                   ; 0x3a48 <__set_v>
    33b5: 80 0a        	bra	$33c1 <_ntoa+0x1a1>
    33b7: a6 09        	ldx	$9                      ; 0x9 <__rc7>
    33b9: f0 0a        	beq	$33c5 <_ntoa+0x1a5>
    33bb: 2c 48 3a     	bit	$3a48                   ; 0x3a48 <__set_v>
    33be: 80 06        	bra	$33c6 <_ntoa+0x1a6>
    33c0: b8           	clv
    33c1: 84 06        	sty	$6                      ; 0x6 <__rc4>
    33c3: 80 07        	bra	$33cc <_ntoa+0x1ac>
    33c5: b8           	clv
    33c6: 64 06        	stz	$6                      ; 0x6 <__rc4>
    33c8: a2 00        	ldx	#$0
    33ca: 86 6e        	stx	$6e                     ; 0x6e <__rc31+0x4d>
    33cc: a5 5f        	lda	$5f                     ; 0x5f <__rc31+0x3e>
    33ce: 29 02        	and	#$2
    33d0: 85 04        	sta	$4                      ; 0x4 <__rc2>
    33d2: a5 5f        	lda	$5f                     ; 0x5f <__rc31+0x3e>
    33d4: 29 01        	and	#$1
    33d6: 85 6d        	sta	$6d                     ; 0x6d <__rc31+0x4c>
    33d8: a0 00        	ldy	#$0
    33da: a5 04        	lda	$4                      ; 0x4 <__rc2>
    33dc: a6 04        	ldx	$4                      ; 0x4 <__rc2>
    33de: 86 6c        	stx	$6c                     ; 0x6c <__rc31+0x4b>
    33e0: aa           	tax
    33e1: d0 44        	bne	$3427 <_ntoa+0x207>
    33e3: a5 5a        	lda	$5a                     ; 0x5a <__rc31+0x39>
    33e5: d0 07        	bne	$33ee <_ntoa+0x1ce>
    33e7: a5 5b        	lda	$5b                     ; 0x5b <__rc31+0x3a>
    33e9: d0 03        	bne	$33ee <_ntoa+0x1ce>
    33eb: 4c c0 34     	jmp	$34c0 <_ntoa+0x2a0>
    33ee: a6 6d        	ldx	$6d                     ; 0x6d <__rc31+0x4c>
    33f0: 86 04        	stx	$4                      ; 0x4 <__rc2>
    33f2: a5 04        	lda	$4                      ; 0x4 <__rc2>
    33f4: d0 03        	bne	$33f9 <_ntoa+0x1d9>
    33f6: 4c c9 34     	jmp	$34c9 <_ntoa+0x2a9>
    33f9: a6 6f        	ldx	$6f                     ; 0x6f <__rc31+0x4e>
    33fb: 86 04        	stx	$4                      ; 0x4 <__rc2>
    33fd: a5 04        	lda	$4                      ; 0x4 <__rc2>
    33ff: d0 09        	bne	$340a <_ntoa+0x1ea>
    3401: a5 5f        	lda	$5f                     ; 0x5f <__rc31+0x3e>
    3403: 29 0c        	and	#$c
    3405: d0 03        	bne	$340a <_ntoa+0x1ea>
    3407: 4c c9 34     	jmp	$34c9 <_ntoa+0x2a9>
    340a: a0 01        	ldy	#$1
    340c: 70 02        	bvs	$3410 <_ntoa+0x1f0>
    340e: a0 00        	ldy	#$0
    3410: a6 5b        	ldx	$5b                     ; 0x5b <__rc31+0x3a>
    3412: c6 5b        	dec	$5b                     ; 0x5b <__rc31+0x3a>
    3414: e0 00        	cpx	#$0
    3416: d0 02        	bne	$341a <_ntoa+0x1fa>
    3418: c6 5a        	dec	$5a                     ; 0x5a <__rc31+0x39>
    341a: 5a           	phy
    341b: 7a           	ply
    341c: d0 03        	bne	$3421 <_ntoa+0x201>
    341e: 4c c6 34     	jmp	$34c6 <_ntoa+0x2a6>
    3421: 2c 48 3a     	bit	$3a48                   ; 0x3a48 <__set_v>
    3424: 4c c7 34     	jmp	$34c7 <_ntoa+0x2a7>
    3427: 64 5c        	stz	$5c                     ; 0x5c <__rc31+0x3b>
    3429: a5 5f        	lda	$5f                     ; 0x5f <__rc31+0x3e>
    342b: 29 10        	and	#$10
    342d: a2 01        	ldx	#$1
    342f: 86 6b        	stx	$6b                     ; 0x6b <__rc31+0x4a>
    3431: aa           	tax
    3432: d0 0b        	bne	$343f <_ntoa+0x21f>
    3434: a6 06        	ldx	$6                      ; 0x6 <__rc4>
    3436: 86 04        	stx	$4                      ; 0x4 <__rc2>
    3438: a6 5c        	ldx	$5c                     ; 0x5c <__rc31+0x3b>
    343a: 86 05        	stx	$5                      ; 0x5 <__rc3>
    343c: 4c f2 36     	jmp	$36f2 <_ntoa+0x4d2>
    343f: 50 1c        	bvc	$345d <_ntoa+0x23d>
    3441: a5 5c        	lda	$5c                     ; 0x5c <__rc31+0x3b>
    3443: a6 06        	ldx	$6                      ; 0x6 <__rc4>
    3445: a8           	tay
    3446: d0 07        	bne	$344f <_ntoa+0x22f>
    3448: e0 00        	cpx	#$0
    344a: d0 03        	bne	$344f <_ntoa+0x22f>
    344c: 4c 11 36     	jmp	$3611 <_ntoa+0x3f1>
    344f: c5 59        	cmp	$59                     ; 0x59 <__rc31+0x38>
    3451: d0 1d        	bne	$3470 <_ntoa+0x250>
    3453: a6 5a        	ldx	$5a                     ; 0x5a <__rc31+0x39>
    3455: a4 06        	ldy	$6                      ; 0x6 <__rc4>
    3457: c4 58        	cpy	$58                     ; 0x58 <__rc31+0x37>
    3459: d0 17        	bne	$3472 <_ntoa+0x252>
    345b: 80 2b        	bra	$3488 <_ntoa+0x268>
    345d: a6 06        	ldx	$6                      ; 0x6 <__rc4>
    345f: 86 6e        	stx	$6e                     ; 0x6e <__rc31+0x4d>
    3461: a6 5c        	ldx	$5c                     ; 0x5c <__rc31+0x3b>
    3463: 4c 2c 36     	jmp	$362c <_ntoa+0x40c>
    3466: 92 06        	sta	($6),z                  ; 0x6 <__rc4>
    3468: 4c 4f 33     	jmp	$334f <_ntoa+0x12f>
    346b: 5a           	phy
    346c: fa           	plx
    346d: 4c 47 33     	jmp	$3347 <_ntoa+0x127>
    3470: a6 5a        	ldx	$5a                     ; 0x5a <__rc31+0x39>
    3472: 86 04        	stx	$4                      ; 0x4 <__rc2>
    3474: c5 04        	cmp	$4                      ; 0x4 <__rc2>
    3476: f0 03        	beq	$347b <_ntoa+0x25b>
    3478: 4c 0d 36     	jmp	$360d <_ntoa+0x3ed>
    347b: a6 5b        	ldx	$5b                     ; 0x5b <__rc31+0x3a>
    347d: 86 04        	stx	$4                      ; 0x4 <__rc2>
    347f: a6 06        	ldx	$6                      ; 0x6 <__rc4>
    3481: e4 04        	cpx	$4                      ; 0x4 <__rc2>
    3483: f0 03        	beq	$3488 <_ntoa+0x268>
    3485: 4c 29 36     	jmp	$3629 <_ntoa+0x409>
    3488: a4 06        	ldy	$6                      ; 0x6 <__rc4>
    348a: 5a           	phy
    348b: fa           	plx
    348c: 88           	dey
    348d: e0 00        	cpx	#$0
    348f: d0 01        	bne	$3492 <_ntoa+0x272>
    3491: 3a           	dec
    3492: a2 00        	ldx	#$0
    3494: c9 00        	cmp	#$0
    3496: d0 07        	bne	$349f <_ntoa+0x27f>
    3498: c0 00        	cpy	#$0
    349a: d0 03        	bne	$349f <_ntoa+0x27f>
    349c: 4c 2c 36     	jmp	$362c <_ntoa+0x40c>
    349f: a6 57        	ldx	$57                     ; 0x57 <__rc31+0x36>
    34a1: f0 03        	beq	$34a6 <_ntoa+0x286>
    34a3: 4c 5d 36     	jmp	$365d <_ntoa+0x43d>
    34a6: 84 6e        	sty	$6e                     ; 0x6e <__rc31+0x4d>
    34a8: aa           	tax
    34a9: a4 60        	ldy	$60                     ; 0x60 <__rc31+0x3f>
    34ab: c0 10        	cpy	#$10
    34ad: f0 03        	beq	$34b2 <_ntoa+0x292>
    34af: 4c 62 36     	jmp	$3662 <_ntoa+0x442>
    34b2: a5 5f        	lda	$5f                     ; 0x5f <__rc31+0x3e>
    34b4: 29 20        	and	#$20
    34b6: d0 03        	bne	$34bb <_ntoa+0x29b>
    34b8: 4c 94 36     	jmp	$3694 <_ntoa+0x474>
    34bb: a2 58        	ldx	#$58
    34bd: 4c 96 36     	jmp	$3696 <_ntoa+0x476>
    34c0: 64 5b        	stz	$5b                     ; 0x5b <__rc31+0x3a>
    34c2: 64 5a        	stz	$5a                     ; 0x5a <__rc31+0x39>
    34c4: 80 03        	bra	$34c9 <_ntoa+0x2a9>
    34c6: b8           	clv
    34c7: a0 00        	ldy	#$0
    34c9: a6 59        	ldx	$59                     ; 0x59 <__rc31+0x38>
    34cb: e0 01        	cpx	#$1
    34cd: d0 08        	bne	$34d7 <_ntoa+0x2b7>
    34cf: a6 58        	ldx	$58                     ; 0x58 <__rc31+0x37>
    34d1: e0 fe        	cpx	#$fe
    34d3: a5 59        	lda	$59                     ; 0x59 <__rc31+0x38>
    34d5: 80 08        	bra	$34df <_ntoa+0x2bf>
    34d7: a6 59        	ldx	$59                     ; 0x59 <__rc31+0x38>
    34d9: e0 01        	cpx	#$1
    34db: a5 59        	lda	$59                     ; 0x59 <__rc31+0x38>
    34dd: a6 58        	ldx	$58                     ; 0x58 <__rc31+0x37>
    34df: 86 6b        	stx	$6b                     ; 0x6b <__rc31+0x4a>
    34e1: 90 06        	bcc	$34e9 <_ntoa+0x2c9>
    34e3: a9 01        	lda	#$1
    34e5: a2 fe        	ldx	#$fe
    34e7: 86 6b        	stx	$6b                     ; 0x6b <__rc31+0x4a>
    34e9: a6 57        	ldx	$57                     ; 0x57 <__rc31+0x36>
    34eb: 86 61        	stx	$61                     ; 0x61 <__rc31+0x40>
    34ed: 85 04        	sta	$4                      ; 0x4 <__rc2>
    34ef: c4 04        	cpy	$4                      ; 0x4 <__rc2>
    34f1: d0 0f        	bne	$3502 <_ntoa+0x2e2>
    34f3: a6 6b        	ldx	$6b                     ; 0x6b <__rc31+0x4a>
    34f5: 86 04        	stx	$4                      ; 0x4 <__rc2>
    34f7: a6 06        	ldx	$6                      ; 0x6 <__rc4>
    34f9: e4 04        	cpx	$4                      ; 0x4 <__rc2>
    34fb: 90 0b        	bcc	$3508 <_ntoa+0x2e8>
    34fd: 64 5c        	stz	$5c                     ; 0x5c <__rc31+0x3b>
    34ff: 4c 55 35     	jmp	$3555 <_ntoa+0x335>
    3502: 85 04        	sta	$4                      ; 0x4 <__rc2>
    3504: c4 04        	cpy	$4                      ; 0x4 <__rc2>
    3506: b0 f5        	bcs	$34fd <_ntoa+0x2dd>
    3508: 85 5c        	sta	$5c                     ; 0x5c <__rc31+0x3b>
    350a: a6 59        	ldx	$59                     ; 0x59 <__rc31+0x38>
    350c: 86 62        	stx	$62                     ; 0x62 <__rc31+0x41>
    350e: a6 58        	ldx	$58                     ; 0x58 <__rc31+0x37>
    3510: 86 59        	stx	$59                     ; 0x59 <__rc31+0x38>
    3512: a2 01        	ldx	#$1
    3514: 70 02        	bvs	$3518 <_ntoa+0x2f8>
    3516: a2 00        	ldx	#$0
    3518: 86 58        	stx	$58                     ; 0x58 <__rc31+0x37>
    351a: a9 e7        	lda	#$e7
    351c: 18           	clc
    351d: 65 06        	adc	$6                      ; 0x6 <__rc4>
    351f: 85 04        	sta	$4                      ; 0x4 <__rc2>
    3521: a9 3d        	lda	#$3d
    3523: 69 00        	adc	#$0
    3525: 85 05        	sta	$5                      ; 0x5 <__rc3>
    3527: 38           	sec
    3528: a6 6b        	ldx	$6b                     ; 0x6b <__rc31+0x4a>
    352a: 86 57        	stx	$57                     ; 0x57 <__rc31+0x36>
    352c: 8a           	txa
    352d: e5 06        	sbc	$6                      ; 0x6 <__rc4>
    352f: aa           	tax
    3530: a5 5c        	lda	$5c                     ; 0x5c <__rc31+0x3b>
    3532: e9 00        	sbc	#$0
    3534: 85 06        	sta	$6                      ; 0x6 <__rc4>
    3536: a9 30        	lda	#$30
    3538: 20 29 3a     	jsr	$3a29 <__memset>
    353b: a6 57        	ldx	$57                     ; 0x57 <__rc31+0x36>
    353d: 86 06        	stx	$6                      ; 0x6 <__rc4>
    353f: a6 58        	ldx	$58                     ; 0x58 <__rc31+0x37>
    3541: f0 05        	beq	$3548 <_ntoa+0x328>
    3543: 2c 48 3a     	bit	$3a48                   ; 0x3a48 <__set_v>
    3546: 80 01        	bra	$3549 <_ntoa+0x329>
    3548: b8           	clv
    3549: a6 61        	ldx	$61                     ; 0x61 <__rc31+0x40>
    354b: 86 57        	stx	$57                     ; 0x57 <__rc31+0x36>
    354d: a6 59        	ldx	$59                     ; 0x59 <__rc31+0x38>
    354f: 86 58        	stx	$58                     ; 0x58 <__rc31+0x37>
    3551: a6 62        	ldx	$62                     ; 0x62 <__rc31+0x41>
    3553: 86 59        	stx	$59                     ; 0x59 <__rc31+0x38>
    3555: a5 6d        	lda	$6d                     ; 0x6d <__rc31+0x4c>
    3557: 29 01        	and	#$1
    3559: d0 03        	bne	$355e <_ntoa+0x33e>
    355b: 4c 29 34     	jmp	$3429 <_ntoa+0x209>
    355e: a6 5c        	ldx	$5c                     ; 0x5c <__rc31+0x3b>
    3560: e4 5a        	cpx	$5a                     ; 0x5a <__rc31+0x39>
    3562: d0 09        	bne	$356d <_ntoa+0x34d>
    3564: a6 06        	ldx	$6                      ; 0x6 <__rc4>
    3566: e4 5b        	cpx	$5b                     ; 0x5b <__rc31+0x3a>
    3568: 90 0c        	bcc	$3576 <_ntoa+0x356>
    356a: 4c 29 34     	jmp	$3429 <_ntoa+0x209>
    356d: a6 5c        	ldx	$5c                     ; 0x5c <__rc31+0x3b>
    356f: e4 5a        	cpx	$5a                     ; 0x5a <__rc31+0x39>
    3571: 90 03        	bcc	$3576 <_ntoa+0x356>
    3573: 4c 29 34     	jmp	$3429 <_ntoa+0x209>
    3576: a6 5c        	ldx	$5c                     ; 0x5c <__rc31+0x3b>
    3578: e0 01        	cpx	#$1
    357a: d0 09        	bne	$3585 <_ntoa+0x365>
    357c: a6 06        	ldx	$6                      ; 0x6 <__rc4>
    357e: e0 fe        	cpx	#$fe
    3580: 90 0c        	bcc	$358e <_ntoa+0x36e>
    3582: 4c 29 34     	jmp	$3429 <_ntoa+0x209>
    3585: a6 5c        	ldx	$5c                     ; 0x5c <__rc31+0x3b>
    3587: e0 01        	cpx	#$1
    3589: 90 03        	bcc	$358e <_ntoa+0x36e>
    358b: 4c 29 34     	jmp	$3429 <_ntoa+0x209>
    358e: a2 01        	ldx	#$1
    3590: 70 02        	bvs	$3594 <_ntoa+0x374>
    3592: a2 00        	ldx	#$0
    3594: 86 6b        	stx	$6b                     ; 0x6b <__rc31+0x4a>
    3596: a9 e7        	lda	#$e7
    3598: 18           	clc
    3599: 65 06        	adc	$6                      ; 0x6 <__rc4>
    359b: 85 04        	sta	$4                      ; 0x4 <__rc2>
    359d: a9 3d        	lda	#$3d
    359f: 65 5c        	adc	$5c                     ; 0x5c <__rc31+0x3b>
    35a1: 85 05        	sta	$5                      ; 0x5 <__rc3>
    35a3: a5 06        	lda	$6                      ; 0x6 <__rc4>
    35a5: 49 ff        	eor	#$ff
    35a7: a8           	tay
    35a8: a5 5c        	lda	$5c                     ; 0x5c <__rc31+0x3b>
    35aa: 49 ff        	eor	#$ff
    35ac: aa           	tax
    35ad: 18           	clc
    35ae: 98           	tya
    35af: 65 5b        	adc	$5b                     ; 0x5b <__rc31+0x3a>
    35b1: 85 09        	sta	$9                      ; 0x9 <__rc7>
    35b3: 8a           	txa
    35b4: 65 5a        	adc	$5a                     ; 0x5a <__rc31+0x39>
    35b6: a8           	tay
    35b7: 38           	sec
    35b8: a9 fd        	lda	#$fd
    35ba: e5 06        	sbc	$6                      ; 0x6 <__rc4>
    35bc: 85 07        	sta	$7                      ; 0x7 <__rc5>
    35be: a9 01        	lda	#$1
    35c0: e5 5c        	sbc	$5c                     ; 0x5c <__rc31+0x3b>
    35c2: 85 08        	sta	$8                      ; 0x8 <__rc6>
    35c4: c4 08        	cpy	$8                      ; 0x8 <__rc6>
    35c6: d0 4d        	bne	$3615 <_ntoa+0x3f5>
    35c8: a6 57        	ldx	$57                     ; 0x57 <__rc31+0x36>
    35ca: 86 70        	stx	$70                     ; 0x70 <__rc31+0x4f>
    35cc: a6 06        	ldx	$6                      ; 0x6 <__rc4>
    35ce: 86 57        	stx	$57                     ; 0x57 <__rc31+0x36>
    35d0: a5 09        	lda	$9                      ; 0x9 <__rc7>
    35d2: c5 07        	cmp	$7                      ; 0x7 <__rc5>
    35d4: 90 04        	bcc	$35da <_ntoa+0x3ba>
    35d6: a4 08        	ldy	$8                      ; 0x8 <__rc6>
    35d8: a5 07        	lda	$7                      ; 0x7 <__rc5>
    35da: aa           	tax
    35db: 84 06        	sty	$6                      ; 0x6 <__rc4>
    35dd: e8           	inx
    35de: d0 02        	bne	$35e2 <_ntoa+0x3c2>
    35e0: e6 06        	inc	$6                      ; 0x6 <__rc4>
    35e2: 84 61        	sty	$61                     ; 0x61 <__rc31+0x40>
    35e4: 85 62        	sta	$62                     ; 0x62 <__rc31+0x41>
    35e6: a9 30        	lda	#$30
    35e8: 20 29 3a     	jsr	$3a29 <__memset>
    35eb: 18           	clc
    35ec: a5 62        	lda	$62                     ; 0x62 <__rc31+0x41>
    35ee: 65 57        	adc	$57                     ; 0x57 <__rc31+0x36>
    35f0: 85 06        	sta	$6                      ; 0x6 <__rc4>
    35f2: a5 61        	lda	$61                     ; 0x61 <__rc31+0x40>
    35f4: 65 5c        	adc	$5c                     ; 0x5c <__rc31+0x3b>
    35f6: e6 06        	inc	$6                      ; 0x6 <__rc4>
    35f8: d0 01        	bne	$35fb <_ntoa+0x3db>
    35fa: 1a           	inc
    35fb: 85 5c        	sta	$5c                     ; 0x5c <__rc31+0x3b>
    35fd: a6 70        	ldx	$70                     ; 0x70 <__rc31+0x4f>
    35ff: 86 57        	stx	$57                     ; 0x57 <__rc31+0x36>
    3601: a6 6b        	ldx	$6b                     ; 0x6b <__rc31+0x4a>
    3603: da           	phx
    3604: fa           	plx
    3605: f0 1e        	beq	$3625 <_ntoa+0x405>
    3607: 2c 48 3a     	bit	$3a48                   ; 0x3a48 <__set_v>
    360a: 4c 29 34     	jmp	$3429 <_ntoa+0x209>
    360d: a6 06        	ldx	$6                      ; 0x6 <__rc4>
    360f: 80 18        	bra	$3629 <_ntoa+0x409>
    3611: a2 00        	ldx	#$0
    3613: 80 17        	bra	$362c <_ntoa+0x40c>
    3615: a6 57        	ldx	$57                     ; 0x57 <__rc31+0x36>
    3617: 86 70        	stx	$70                     ; 0x70 <__rc31+0x4f>
    3619: a6 06        	ldx	$6                      ; 0x6 <__rc4>
    361b: 86 57        	stx	$57                     ; 0x57 <__rc31+0x36>
    361d: c4 08        	cpy	$8                      ; 0x8 <__rc6>
    361f: a5 09        	lda	$9                      ; 0x9 <__rc7>
    3621: b0 b3        	bcs	$35d6 <_ntoa+0x3b6>
    3623: 80 b5        	bra	$35da <_ntoa+0x3ba>
    3625: b8           	clv
    3626: 4c 29 34     	jmp	$3429 <_ntoa+0x209>
    3629: 86 6e        	stx	$6e                     ; 0x6e <__rc31+0x4d>
    362b: aa           	tax
    362c: a5 57        	lda	$57                     ; 0x57 <__rc31+0x36>
    362e: d0 30        	bne	$3660 <_ntoa+0x440>
    3630: a4 60        	ldy	$60                     ; 0x60 <__rc31+0x3f>
    3632: c0 10        	cpy	#$10
    3634: d0 2c        	bne	$3662 <_ntoa+0x442>
    3636: a5 5f        	lda	$5f                     ; 0x5f <__rc31+0x3e>
    3638: 29 20        	and	#$20
    363a: f0 04        	beq	$3640 <_ntoa+0x420>
    363c: a0 58        	ldy	#$58
    363e: 80 02        	bra	$3642 <_ntoa+0x422>
    3640: a0 78        	ldy	#$78
    3642: 84 70        	sty	$70                     ; 0x70 <__rc31+0x4f>
    3644: a9 fe        	lda	#$fe
    3646: e0 01        	cpx	#$1
    3648: d0 06        	bne	$3650 <_ntoa+0x430>
    364a: a4 6e        	ldy	$6e                     ; 0x6e <__rc31+0x4d>
    364c: c0 fe        	cpy	#$fe
    364e: 80 04        	bra	$3654 <_ntoa+0x434>
    3650: e0 01        	cpx	#$1
    3652: a4 6e        	ldy	$6e                     ; 0x6e <__rc31+0x4d>
    3654: 84 07        	sty	$7                      ; 0x7 <__rc5>
    3656: 86 06        	stx	$6                      ; 0x6 <__rc4>
    3658: 90 4b        	bcc	$36a5 <_ntoa+0x485>
    365a: 4c 48 37     	jmp	$3748 <_ntoa+0x528>
    365d: 84 6e        	sty	$6e                     ; 0x6e <__rc31+0x4d>
    365f: aa           	tax
    3660: a4 60        	ldy	$60                     ; 0x60 <__rc31+0x3f>
    3662: a5 57        	lda	$57                     ; 0x57 <__rc31+0x36>
    3664: d0 13        	bne	$3679 <_ntoa+0x459>
    3666: c0 02        	cpy	#$2
    3668: d0 0f        	bne	$3679 <_ntoa+0x459>
    366a: a9 fe        	lda	#$fe
    366c: e0 01        	cpx	#$1
    366e: d0 11        	bne	$3681 <_ntoa+0x461>
    3670: a4 6e        	ldy	$6e                     ; 0x6e <__rc31+0x4d>
    3672: c0 fe        	cpy	#$fe
    3674: 90 12        	bcc	$3688 <_ntoa+0x468>
    3676: 4c 48 37     	jmp	$3748 <_ntoa+0x528>
    3679: a4 6e        	ldy	$6e                     ; 0x6e <__rc31+0x4d>
    367b: 84 07        	sty	$7                      ; 0x7 <__rc5>
    367d: 86 06        	stx	$6                      ; 0x6 <__rc4>
    367f: 80 3b        	bra	$36bc <_ntoa+0x49c>
    3681: e0 01        	cpx	#$1
    3683: 90 03        	bcc	$3688 <_ntoa+0x468>
    3685: 4c 48 37     	jmp	$3748 <_ntoa+0x528>
    3688: a0 62        	ldy	#$62
    368a: 84 70        	sty	$70                     ; 0x70 <__rc31+0x4f>
    368c: a4 6e        	ldy	$6e                     ; 0x6e <__rc31+0x4d>
    368e: 84 07        	sty	$7                      ; 0x7 <__rc5>
    3690: 86 06        	stx	$6                      ; 0x6 <__rc4>
    3692: 80 11        	bra	$36a5 <_ntoa+0x485>
    3694: a2 78        	ldx	#$78
    3696: 86 70        	stx	$70                     ; 0x70 <__rc31+0x4f>
    3698: a5 06        	lda	$6                      ; 0x6 <__rc4>
    369a: 18           	clc
    369b: 69 fe        	adc	#$fe
    369d: 85 07        	sta	$7                      ; 0x7 <__rc5>
    369f: a5 5c        	lda	$5c                     ; 0x5c <__rc31+0x3b>
    36a1: 69 ff        	adc	#$ff
    36a3: 85 06        	sta	$6                      ; 0x6 <__rc4>
    36a5: 18           	clc
    36a6: a9 e7        	lda	#$e7
    36a8: 65 07        	adc	$7                      ; 0x7 <__rc5>
    36aa: 85 04        	sta	$4                      ; 0x4 <__rc2>
    36ac: a9 3d        	lda	#$3d
    36ae: 65 06        	adc	$6                      ; 0x6 <__rc4>
    36b0: 85 05        	sta	$5                      ; 0x5 <__rc3>
    36b2: e6 07        	inc	$7                      ; 0x7 <__rc5>
    36b4: d0 02        	bne	$36b8 <_ntoa+0x498>
    36b6: e6 06        	inc	$6                      ; 0x6 <__rc4>
    36b8: a5 70        	lda	$70                     ; 0x70 <__rc31+0x4f>
    36ba: 92 04        	sta	($4),z                  ; 0x4 <__rc2>
    36bc: a6 06        	ldx	$6                      ; 0x6 <__rc4>
    36be: e0 01        	cpx	#$1
    36c0: d0 06        	bne	$36c8 <_ntoa+0x4a8>
    36c2: a6 07        	ldx	$7                      ; 0x7 <__rc5>
    36c4: e0 fe        	cpx	#$fe
    36c6: 80 04        	bra	$36cc <_ntoa+0x4ac>
    36c8: a6 06        	ldx	$6                      ; 0x6 <__rc4>
    36ca: e0 01        	cpx	#$1
    36cc: a9 fe        	lda	#$fe
    36ce: 90 03        	bcc	$36d3 <_ntoa+0x4b3>
    36d0: 4c 48 37     	jmp	$3748 <_ntoa+0x528>
    36d3: a6 07        	ldx	$7                      ; 0x7 <__rc5>
    36d5: 86 04        	stx	$4                      ; 0x4 <__rc2>
    36d7: a6 06        	ldx	$6                      ; 0x6 <__rc4>
    36d9: 86 05        	stx	$5                      ; 0x5 <__rc3>
    36db: e6 04        	inc	$4                      ; 0x4 <__rc2>
    36dd: d0 02        	bne	$36e1 <_ntoa+0x4c1>
    36df: e6 05        	inc	$5                      ; 0x5 <__rc3>
    36e1: a9 e7        	lda	#$e7
    36e3: 18           	clc
    36e4: 65 07        	adc	$7                      ; 0x7 <__rc5>
    36e6: 85 08        	sta	$8                      ; 0x8 <__rc6>
    36e8: a9 3d        	lda	#$3d
    36ea: 65 06        	adc	$6                      ; 0x6 <__rc4>
    36ec: 85 09        	sta	$9                      ; 0x9 <__rc7>
    36ee: a9 30        	lda	#$30
    36f0: 92 08        	sta	($8),z                  ; 0x8 <__rc6>
    36f2: a9 fe        	lda	#$fe
    36f4: a6 05        	ldx	$5                      ; 0x5 <__rc3>
    36f6: e0 01        	cpx	#$1
    36f8: d0 08        	bne	$3702 <_ntoa+0x4e2>
    36fa: a6 04        	ldx	$4                      ; 0x4 <__rc2>
    36fc: e0 fe        	cpx	#$fe
    36fe: 90 08        	bcc	$3708 <_ntoa+0x4e8>
    3700: 80 46        	bra	$3748 <_ntoa+0x528>
    3702: a6 05        	ldx	$5                      ; 0x5 <__rc3>
    3704: e0 01        	cpx	#$1
    3706: b0 40        	bcs	$3748 <_ntoa+0x528>
    3708: a0 2d        	ldy	#$2d
    370a: a6 6f        	ldx	$6f                     ; 0x6f <__rc31+0x4e>
    370c: 86 06        	stx	$6                      ; 0x6 <__rc4>
    370e: a5 06        	lda	$6                      ; 0x6 <__rc4>
    3710: d0 1a        	bne	$372c <_ntoa+0x50c>
    3712: a5 5f        	lda	$5f                     ; 0x5f <__rc31+0x3e>
    3714: 29 04        	and	#$4
    3716: a0 2b        	ldy	#$2b
    3718: aa           	tax
    3719: d0 11        	bne	$372c <_ntoa+0x50c>
    371b: a5 5f        	lda	$5f                     ; 0x5f <__rc31+0x3e>
    371d: 29 08        	and	#$8
    371f: a0 20        	ldy	#$20
    3721: aa           	tax
    3722: d0 08        	bne	$372c <_ntoa+0x50c>
    3724: a5 04        	lda	$4                      ; 0x4 <__rc2>
    3726: a6 05        	ldx	$5                      ; 0x5 <__rc3>
    3728: 86 6b        	stx	$6b                     ; 0x6b <__rc31+0x4a>
    372a: 80 1c        	bra	$3748 <_ntoa+0x528>
    372c: 18           	clc
    372d: a9 e7        	lda	#$e7
    372f: 65 04        	adc	$4                      ; 0x4 <__rc2>
    3731: 85 06        	sta	$6                      ; 0x6 <__rc4>
    3733: a9 3d        	lda	#$3d
    3735: 65 05        	adc	$5                      ; 0x5 <__rc3>
    3737: 85 07        	sta	$7                      ; 0x7 <__rc5>
    3739: e6 04        	inc	$4                      ; 0x4 <__rc2>
    373b: d0 02        	bne	$373f <_ntoa+0x51f>
    373d: e6 05        	inc	$5                      ; 0x5 <__rc3>
    373f: a6 05        	ldx	$5                      ; 0x5 <__rc3>
    3741: 86 6b        	stx	$6b                     ; 0x6b <__rc31+0x4a>
    3743: 98           	tya
    3744: 92 06        	sta	($6),z                  ; 0x6 <__rc4>
    3746: a5 04        	lda	$4                      ; 0x4 <__rc2>
    3748: 85 0a        	sta	$a                      ; 0xa <__rc8>
    374a: a6 5e        	ldx	$5e                     ; 0x5e <__rc31+0x3d>
    374c: 86 04        	stx	$4                      ; 0x4 <__rc2>
    374e: a6 5d        	ldx	$5d                     ; 0x5d <__rc31+0x3c>
    3750: 86 05        	stx	$5                      ; 0x5 <__rc3>
    3752: a6 6c        	ldx	$6c                     ; 0x6c <__rc31+0x4b>
    3754: 86 06        	stx	$6                      ; 0x6 <__rc4>
    3756: a5 06        	lda	$6                      ; 0x6 <__rc4>
    3758: f0 03        	beq	$375d <_ntoa+0x53d>
    375a: 4c d5 37     	jmp	$37d5 <_ntoa+0x5b5>
    375d: a5 6d        	lda	$6d                     ; 0x6d <__rc31+0x4c>
    375f: 29 01        	and	#$1
    3761: a6 5e        	ldx	$5e                     ; 0x5e <__rc31+0x3d>
    3763: 86 04        	stx	$4                      ; 0x4 <__rc2>
    3765: a6 5d        	ldx	$5d                     ; 0x5d <__rc31+0x3c>
    3767: 86 05        	stx	$5                      ; 0x5 <__rc3>
    3769: aa           	tax
    376a: f0 03        	beq	$376f <_ntoa+0x54f>
    376c: 4c d5 37     	jmp	$37d5 <_ntoa+0x5b5>
    376f: a6 5a        	ldx	$5a                     ; 0x5a <__rc31+0x39>
    3771: 86 04        	stx	$4                      ; 0x4 <__rc2>
    3773: a4 6b        	ldy	$6b                     ; 0x6b <__rc31+0x4a>
    3775: c4 04        	cpy	$4                      ; 0x4 <__rc2>
    3777: d0 0a        	bne	$3783 <_ntoa+0x563>
    3779: a6 5b        	ldx	$5b                     ; 0x5b <__rc31+0x3a>
    377b: 86 04        	stx	$4                      ; 0x4 <__rc2>
    377d: a6 0a        	ldx	$a                      ; 0xa <__rc8>
    377f: e4 04        	cpx	$4                      ; 0x4 <__rc2>
    3781: 80 04        	bra	$3787 <_ntoa+0x567>
    3783: 86 04        	stx	$4                      ; 0x4 <__rc2>
    3785: c4 04        	cpy	$4                      ; 0x4 <__rc2>
    3787: a6 5e        	ldx	$5e                     ; 0x5e <__rc31+0x3d>
    3789: 86 04        	stx	$4                      ; 0x4 <__rc2>
    378b: a6 5d        	ldx	$5d                     ; 0x5d <__rc31+0x3c>
    378d: 86 05        	stx	$5                      ; 0x5 <__rc3>
    378f: b0 44        	bcs	$37d5 <_ntoa+0x5b5>
    3791: 38           	sec
    3792: a5 5b        	lda	$5b                     ; 0x5b <__rc31+0x3a>
    3794: e5 0a        	sbc	$a                      ; 0xa <__rc8>
    3796: 85 05        	sta	$5                      ; 0x5 <__rc3>
    3798: a6 6b        	ldx	$6b                     ; 0x6b <__rc31+0x4a>
    379a: 86 04        	stx	$4                      ; 0x4 <__rc2>
    379c: a5 5a        	lda	$5a                     ; 0x5a <__rc31+0x39>
    379e: e5 04        	sbc	$4                      ; 0x4 <__rc2>
    37a0: a8           	tay
    37a1: a9 20        	lda	#$20
    37a3: 20 d2 ff     	jsr	$ffd2 <__heap_start+0xbfed>
    37a6: a5 05        	lda	$5                      ; 0x5 <__rc3>
    37a8: 84 04        	sty	$4                      ; 0x4 <__rc2>
    37aa: aa           	tax
    37ab: 3a           	dec
    37ac: e0 00        	cpx	#$0
    37ae: d0 02        	bne	$37b2 <_ntoa+0x592>
    37b0: c6 04        	dec	$4                      ; 0x4 <__rc2>
    37b2: a4 04        	ldy	$4                      ; 0x4 <__rc2>
    37b4: 85 05        	sta	$5                      ; 0x5 <__rc3>
    37b6: d0 e9        	bne	$37a1 <_ntoa+0x581>
    37b8: aa           	tax
    37b9: d0 e6        	bne	$37a1 <_ntoa+0x581>
    37bb: 18           	clc
    37bc: a5 5b        	lda	$5b                     ; 0x5b <__rc31+0x3a>
    37be: 65 5e        	adc	$5e                     ; 0x5e <__rc31+0x3d>
    37c0: aa           	tax
    37c1: a5 5a        	lda	$5a                     ; 0x5a <__rc31+0x39>
    37c3: 65 5d        	adc	$5d                     ; 0x5d <__rc31+0x3c>
    37c5: a8           	tay
    37c6: 38           	sec
    37c7: 8a           	txa
    37c8: e5 0a        	sbc	$a                      ; 0xa <__rc8>
    37ca: 85 04        	sta	$4                      ; 0x4 <__rc2>
    37cc: a6 6b        	ldx	$6b                     ; 0x6b <__rc31+0x4a>
    37ce: 86 05        	stx	$5                      ; 0x5 <__rc3>
    37d0: 98           	tya
    37d1: e5 05        	sbc	$5                      ; 0x5 <__rc3>
    37d3: 85 05        	sta	$5                      ; 0x5 <__rc3>
    37d5: a6 0a        	ldx	$a                      ; 0xa <__rc8>
    37d7: a4 6b        	ldy	$6b                     ; 0x6b <__rc31+0x4a>
    37d9: 84 06        	sty	$6                      ; 0x6 <__rc4>
    37db: a5 06        	lda	$6                      ; 0x6 <__rc4>
    37dd: d0 06        	bne	$37e5 <_ntoa+0x5c5>
    37df: 8a           	txa
    37e0: d0 03        	bne	$37e5 <_ntoa+0x5c5>
    37e2: 4c 9d 38     	jmp	$389d <_ntoa+0x67d>
    37e5: 86 07        	stx	$7                      ; 0x7 <__rc5>
    37e7: 8a           	txa
    37e8: ca           	dex
    37e9: c9 00        	cmp	#$0
    37eb: d0 01        	bne	$37ee <_ntoa+0x5ce>
    37ed: 88           	dey
    37ee: a9 e7        	lda	#$e7
    37f0: 18           	clc
    37f1: 65 07        	adc	$7                      ; 0x7 <__rc5>
    37f3: 85 08        	sta	$8                      ; 0x8 <__rc6>
    37f5: a9 3d        	lda	#$3d
    37f7: 65 06        	adc	$6                      ; 0x6 <__rc4>
    37f9: 85 09        	sta	$9                      ; 0x9 <__rc7>
    37fb: a5 08        	lda	$8                      ; 0x8 <__rc6>
    37fd: c6 08        	dec	$8                      ; 0x8 <__rc6>
    37ff: c9 00        	cmp	#$0
    3801: d0 02        	bne	$3805 <_ntoa+0x5e5>
    3803: c6 09        	dec	$9                      ; 0x9 <__rc7>
    3805: b2 08        	lda	($8),z                  ; 0x8 <__rc6>
    3807: f0 0a        	beq	$3813 <_ntoa+0x5f3>
    3809: c9 0a        	cmp	#$a
    380b: d0 03        	bne	$3810 <_ntoa+0x5f0>
    380d: 4c a4 38     	jmp	$38a4 <_ntoa+0x684>
    3810: 20 d2 ff     	jsr	$ffd2 <__heap_start+0xbfed>
    3813: 86 07        	stx	$7                      ; 0x7 <__rc5>
    3815: 84 06        	sty	$6                      ; 0x6 <__rc4>
    3817: 98           	tya
    3818: d0 cd        	bne	$37e7 <_ntoa+0x5c7>
    381a: 8a           	txa
    381b: d0 ca        	bne	$37e7 <_ntoa+0x5c7>
    381d: 18           	clc
    381e: a5 0a        	lda	$a                      ; 0xa <__rc8>
    3820: 65 04        	adc	$4                      ; 0x4 <__rc2>
    3822: 85 08        	sta	$8                      ; 0x8 <__rc6>
    3824: a5 6b        	lda	$6b                     ; 0x6b <__rc31+0x4a>
    3826: 65 05        	adc	$5                      ; 0x5 <__rc3>
    3828: 85 05        	sta	$5                      ; 0x5 <__rc3>
    382a: a6 5a        	ldx	$5a                     ; 0x5a <__rc31+0x39>
    382c: a4 6c        	ldy	$6c                     ; 0x6c <__rc31+0x4b>
    382e: 84 04        	sty	$4                      ; 0x4 <__rc2>
    3830: a5 04        	lda	$4                      ; 0x4 <__rc2>
    3832: d0 03        	bne	$3837 <_ntoa+0x617>
    3834: 4c 98 38     	jmp	$3898 <_ntoa+0x678>
    3837: 38           	sec
    3838: a5 08        	lda	$8                      ; 0x8 <__rc6>
    383a: e5 5e        	sbc	$5e                     ; 0x5e <__rc31+0x3d>
    383c: 85 06        	sta	$6                      ; 0x6 <__rc4>
    383e: a5 05        	lda	$5                      ; 0x5 <__rc3>
    3840: e5 5d        	sbc	$5d                     ; 0x5d <__rc31+0x3c>
    3842: 86 04        	stx	$4                      ; 0x4 <__rc2>
    3844: c5 04        	cmp	$4                      ; 0x4 <__rc2>
    3846: d0 0e        	bne	$3856 <_ntoa+0x636>
    3848: 85 07        	sta	$7                      ; 0x7 <__rc5>
    384a: a6 5b        	ldx	$5b                     ; 0x5b <__rc31+0x3a>
    384c: 86 04        	stx	$4                      ; 0x4 <__rc2>
    384e: a6 06        	ldx	$6                      ; 0x6 <__rc4>
    3850: e4 04        	cpx	$4                      ; 0x4 <__rc2>
    3852: 90 14        	bcc	$3868 <_ntoa+0x648>
    3854: 80 42        	bra	$3898 <_ntoa+0x678>
    3856: 86 04        	stx	$4                      ; 0x4 <__rc2>
    3858: 85 07        	sta	$7                      ; 0x7 <__rc5>
    385a: c5 04        	cmp	$4                      ; 0x4 <__rc2>
    385c: 90 0a        	bcc	$3868 <_ntoa+0x648>
    385e: 80 38        	bra	$3898 <_ntoa+0x678>
    3860: 86 04        	stx	$4                      ; 0x4 <__rc2>
    3862: 84 07        	sty	$7                      ; 0x7 <__rc5>
    3864: c4 04        	cpy	$4                      ; 0x4 <__rc2>
    3866: b0 22        	bcs	$388a <_ntoa+0x66a>
    3868: a9 20        	lda	#$20
    386a: 20 d2 ff     	jsr	$ffd2 <__heap_start+0xbfed>
    386d: a5 06        	lda	$6                      ; 0x6 <__rc4>
    386f: a6 5a        	ldx	$5a                     ; 0x5a <__rc31+0x39>
    3871: a4 07        	ldy	$7                      ; 0x7 <__rc5>
    3873: 1a           	inc
    3874: d0 01        	bne	$3877 <_ntoa+0x657>
    3876: c8           	iny
    3877: 85 06        	sta	$6                      ; 0x6 <__rc4>
    3879: 86 04        	stx	$4                      ; 0x4 <__rc2>
    387b: c4 04        	cpy	$4                      ; 0x4 <__rc2>
    387d: d0 e1        	bne	$3860 <_ntoa+0x640>
    387f: 84 07        	sty	$7                      ; 0x7 <__rc5>
    3881: a6 5b        	ldx	$5b                     ; 0x5b <__rc31+0x3a>
    3883: 86 04        	stx	$4                      ; 0x4 <__rc2>
    3885: aa           	tax
    3886: e4 04        	cpx	$4                      ; 0x4 <__rc2>
    3888: 90 de        	bcc	$3868 <_ntoa+0x648>
    388a: 18           	clc
    388b: a5 5b        	lda	$5b                     ; 0x5b <__rc31+0x3a>
    388d: 65 5e        	adc	$5e                     ; 0x5e <__rc31+0x3d>
    388f: aa           	tax
    3890: a5 5a        	lda	$5a                     ; 0x5a <__rc31+0x39>
    3892: 65 5d        	adc	$5d                     ; 0x5d <__rc31+0x3c>
    3894: 85 05        	sta	$5                      ; 0x5 <__rc3>
    3896: 86 08        	stx	$8                      ; 0x8 <__rc6>
    3898: a6 05        	ldx	$5                      ; 0x5 <__rc3>
    389a: a5 08        	lda	$8                      ; 0x8 <__rc6>
    389c: 60           	rts
    389d: a6 04        	ldx	$4                      ; 0x4 <__rc2>
    389f: 86 08        	stx	$8                      ; 0x8 <__rc6>
    38a1: 4c 2a 38     	jmp	$382a <_ntoa+0x60a>
    38a4: a9 0d        	lda	#$d
    38a6: 4c 10 38     	jmp	$3810 <_ntoa+0x5f0>

000038a9 <strlen>:
    38a9: b2 04        	lda	($4),z                  ; 0x4 <__rc2>
    38ab: f0 29        	beq	$38d6 <strlen+0x2d>
    38ad: a9 00        	lda	#$0
    38af: a0 01        	ldy	#$1
    38b1: 64 06        	stz	$6                      ; 0x6 <__rc4>
    38b3: aa           	tax
    38b4: 64 07        	stz	$7                      ; 0x7 <__rc5>
    38b6: 18           	clc
    38b7: 65 04        	adc	$4                      ; 0x4 <__rc2>
    38b9: 85 08        	sta	$8                      ; 0x8 <__rc6>
    38bb: a5 07        	lda	$7                      ; 0x7 <__rc5>
    38bd: 65 05        	adc	$5                      ; 0x5 <__rc3>
    38bf: e6 06        	inc	$6                      ; 0x6 <__rc4>
    38c1: d0 01        	bne	$38c4 <strlen+0x1b>
    38c3: e8           	inx
    38c4: 85 09        	sta	$9                      ; 0x9 <__rc7>
    38c6: b1 08        	lda	($8),y                  ; 0x8 <__rc6>
    38c8: 85 08        	sta	$8                      ; 0x8 <__rc6>
    38ca: a5 06        	lda	$6                      ; 0x6 <__rc4>
    38cc: 86 07        	stx	$7                      ; 0x7 <__rc5>
    38ce: e6 08        	inc	$8                      ; 0x8 <__rc6>
    38d0: c6 08        	dec	$8                      ; 0x8 <__rc6>
    38d2: d0 e2        	bne	$38b6 <strlen+0xd>
    38d4: 80 04        	bra	$38da <strlen+0x31>
    38d6: 64 06        	stz	$6                      ; 0x6 <__rc4>
    38d8: a2 00        	ldx	#$0
    38da: a5 06        	lda	$6                      ; 0x6 <__rc4>
    38dc: 60           	rts

000038dd <__ashlhi3>:
    38dd: 86 05        	stx	$5                      ; 0x5 <__rc3>
    38df: a6 04        	ldx	$4                      ; 0x4 <__rc2>
    38e1: f0 0a        	beq	$38ed <__ashlhi3+0x10>
    38e3: a6 04        	ldx	$4                      ; 0x4 <__rc2>
    38e5: ca           	dex
    38e6: 0a           	asl
    38e7: 26 05        	rol	$5                      ; 0x5 <__rc3>
    38e9: e0 00        	cpx	#$0
    38eb: d0 f8        	bne	$38e5 <__ashlhi3+0x8>
    38ed: a6 05        	ldx	$5                      ; 0x5 <__rc3>
    38ef: 60           	rts

000038f0 <__mulhi3>:
    38f0: a4 05        	ldy	$5                      ; 0x5 <__rc3>
    38f2: d0 04        	bne	$38f8 <__mulhi3+0x8>
    38f4: a4 04        	ldy	$4                      ; 0x4 <__rc2>
    38f6: f0 24        	beq	$391c <__mulhi3+0x2c>
    38f8: 85 06        	sta	$6                      ; 0x6 <__rc4>
    38fa: 86 07        	stx	$7                      ; 0x7 <__rc5>
    38fc: a0 00        	ldy	#$0
    38fe: 98           	tya
    38ff: 46 05        	lsr	$5                      ; 0x5 <__rc3>
    3901: 66 04        	ror	$4                      ; 0x4 <__rc2>
    3903: 90 09        	bcc	$390e <__mulhi3+0x1e>
    3905: aa           	tax
    3906: 98           	tya
    3907: 18           	clc
    3908: 65 06        	adc	$6                      ; 0x6 <__rc4>
    390a: a8           	tay
    390b: 8a           	txa
    390c: 65 07        	adc	$7                      ; 0x7 <__rc5>
    390e: 06 06        	asl	$6                      ; 0x6 <__rc4>
    3910: 26 07        	rol	$7                      ; 0x7 <__rc5>
    3912: a6 05        	ldx	$5                      ; 0x5 <__rc3>
    3914: d0 e9        	bne	$38ff <__mulhi3+0xf>
    3916: a6 04        	ldx	$4                      ; 0x4 <__rc2>
    3918: d0 e5        	bne	$38ff <__mulhi3+0xf>
    391a: 80 03        	bra	$391f <__mulhi3+0x2f>
    391c: a0 00        	ldy	#$0
    391e: 98           	tya
    391f: aa           	tax
    3920: 98           	tya
    3921: 60           	rts

00003922 <__udivmodhi4>:
    3922: 85 0b        	sta	$b                      ; 0xb <__rc9>
    3924: 8a           	txa
    3925: 64 08        	stz	$8                      ; 0x8 <__rc6>
    3927: a6 05        	ldx	$5                      ; 0x5 <__rc3>
    3929: d0 04        	bne	$392f <__udivmodhi4+0xd>
    392b: a6 04        	ldx	$4                      ; 0x4 <__rc2>
    392d: f0 0a        	beq	$3939 <__udivmodhi4+0x17>
    392f: c5 05        	cmp	$5                      ; 0x5 <__rc3>
    3931: d0 0b        	bne	$393e <__udivmodhi4+0x1c>
    3933: a6 0b        	ldx	$b                      ; 0xb <__rc9>
    3935: e4 04        	cpx	$4                      ; 0x4 <__rc2>
    3937: b0 09        	bcs	$3942 <__udivmodhi4+0x20>
    3939: a2 00        	ldx	#$0
    393b: 4c eb 39     	jmp	$39eb <__udivmodhi4+0xc9>
    393e: c5 05        	cmp	$5                      ; 0x5 <__rc3>
    3940: 90 f7        	bcc	$3939 <__udivmodhi4+0x17>
    3942: a8           	tay
    3943: a6 05        	ldx	$5                      ; 0x5 <__rc3>
    3945: 10 03        	bpl	$394a <__udivmodhi4+0x28>
    3947: 4c df 39     	jmp	$39df <__udivmodhi4+0xbd>
    394a: a2 00        	ldx	#$0
    394c: 5a           	phy
    394d: a4 04        	ldy	$4                      ; 0x4 <__rc2>
    394f: 84 09        	sty	$9                      ; 0x9 <__rc7>
    3951: a4 05        	ldy	$5                      ; 0x5 <__rc3>
    3953: 84 0a        	sty	$a                      ; 0xa <__rc8>
    3955: 7a           	ply
    3956: 06 09        	asl	$9                      ; 0x9 <__rc7>
    3958: 26 0a        	rol	$a                      ; 0xa <__rc8>
    395a: c5 0a        	cmp	$a                      ; 0xa <__rc8>
    395c: d0 09        	bne	$3967 <__udivmodhi4+0x45>
    395e: a5 0b        	lda	$b                      ; 0xb <__rc9>
    3960: c5 09        	cmp	$9                      ; 0x9 <__rc7>
    3962: 98           	tya
    3963: b0 06        	bcs	$396b <__udivmodhi4+0x49>
    3965: 80 17        	bra	$397e <__udivmodhi4+0x5c>
    3967: c5 0a        	cmp	$a                      ; 0xa <__rc8>
    3969: 90 13        	bcc	$397e <__udivmodhi4+0x5c>
    396b: e8           	inx
    396c: 5a           	phy
    396d: a4 09        	ldy	$9                      ; 0x9 <__rc7>
    396f: 84 04        	sty	$4                      ; 0x4 <__rc2>
    3971: a4 0a        	ldy	$a                      ; 0xa <__rc8>
    3973: 84 05        	sty	$5                      ; 0x5 <__rc3>
    3975: 7a           	ply
    3976: e6 0a        	inc	$a                      ; 0xa <__rc8>
    3978: c6 0a        	dec	$a                      ; 0xa <__rc8>
    397a: 10 da        	bpl	$3956 <__udivmodhi4+0x34>
    397c: 80 08        	bra	$3986 <__udivmodhi4+0x64>
    397e: a5 04        	lda	$4                      ; 0x4 <__rc2>
    3980: 85 09        	sta	$9                      ; 0x9 <__rc7>
    3982: a5 05        	lda	$5                      ; 0x5 <__rc3>
    3984: 85 0a        	sta	$a                      ; 0xa <__rc8>
    3986: 38           	sec
    3987: a5 0b        	lda	$b                      ; 0xb <__rc9>
    3989: e5 09        	sbc	$9                      ; 0x9 <__rc7>
    398b: 85 0b        	sta	$b                      ; 0xb <__rc9>
    398d: 98           	tya
    398e: e5 0a        	sbc	$a                      ; 0xa <__rc8>
    3990: e0 00        	cpx	#$0
    3992: d0 03        	bne	$3997 <__udivmodhi4+0x75>
    3994: 4c e9 39     	jmp	$39e9 <__udivmodhi4+0xc7>
    3997: 64 08        	stz	$8                      ; 0x8 <__rc6>
    3999: a0 01        	ldy	#$1
    399b: 84 53        	sty	$53                     ; 0x53 <__rc31+0x32>
    399d: 46 0a        	lsr	$a                      ; 0xa <__rc8>
    399f: 66 09        	ror	$9                      ; 0x9 <__rc7>
    39a1: a4 53        	ldy	$53                     ; 0x53 <__rc31+0x32>
    39a3: 84 04        	sty	$4                      ; 0x4 <__rc2>
    39a5: 06 04        	asl	$4                      ; 0x4 <__rc2>
    39a7: a0 01        	ldy	#$1
    39a9: b0 02        	bcs	$39ad <__udivmodhi4+0x8b>
    39ab: a0 00        	ldy	#$0
    39ad: 84 05        	sty	$5                      ; 0x5 <__rc3>
    39af: a4 04        	ldy	$4                      ; 0x4 <__rc2>
    39b1: 84 53        	sty	$53                     ; 0x53 <__rc31+0x32>
    39b3: c5 0a        	cmp	$a                      ; 0xa <__rc8>
    39b5: d0 22        	bne	$39d9 <__udivmodhi4+0xb7>
    39b7: a4 0b        	ldy	$b                      ; 0xb <__rc9>
    39b9: c4 09        	cpy	$9                      ; 0x9 <__rc7>
    39bb: 90 11        	bcc	$39ce <__udivmodhi4+0xac>
    39bd: a8           	tay
    39be: a5 53        	lda	$53                     ; 0x53 <__rc31+0x32>
    39c0: 09 01        	ora	#$1
    39c2: 85 53        	sta	$53                     ; 0x53 <__rc31+0x32>
    39c4: 38           	sec
    39c5: a5 0b        	lda	$b                      ; 0xb <__rc9>
    39c7: e5 09        	sbc	$9                      ; 0x9 <__rc7>
    39c9: 85 0b        	sta	$b                      ; 0xb <__rc9>
    39cb: 98           	tya
    39cc: e5 0a        	sbc	$a                      ; 0xa <__rc8>
    39ce: a4 05        	ldy	$5                      ; 0x5 <__rc3>
    39d0: c0 01        	cpy	#$1
    39d2: 26 08        	rol	$8                      ; 0x8 <__rc6>
    39d4: ca           	dex
    39d5: d0 c6        	bne	$399d <__udivmodhi4+0x7b>
    39d7: 80 14        	bra	$39ed <__udivmodhi4+0xcb>
    39d9: c5 0a        	cmp	$a                      ; 0xa <__rc8>
    39db: b0 e0        	bcs	$39bd <__udivmodhi4+0x9b>
    39dd: 80 ef        	bra	$39ce <__udivmodhi4+0xac>
    39df: 38           	sec
    39e0: a5 0b        	lda	$b                      ; 0xb <__rc9>
    39e2: e5 04        	sbc	$4                      ; 0x4 <__rc2>
    39e4: 85 0b        	sta	$b                      ; 0xb <__rc9>
    39e6: 98           	tya
    39e7: e5 05        	sbc	$5                      ; 0x5 <__rc3>
    39e9: a2 01        	ldx	#$1
    39eb: 86 53        	stx	$53                     ; 0x53 <__rc31+0x32>
    39ed: aa           	tax
    39ee: a5 0b        	lda	$b                      ; 0xb <__rc9>
    39f0: 92 06        	sta	($6),z                  ; 0x6 <__rc4>
    39f2: a0 01        	ldy	#$1
    39f4: 8a           	txa
    39f5: 91 06        	sta	($6),y                  ; 0x6 <__rc4>
    39f7: a6 08        	ldx	$8                      ; 0x8 <__rc6>
    39f9: a5 53        	lda	$53                     ; 0x53 <__rc31+0x32>
    39fb: 60           	rts

000039fc <memcpy>:
    39fc: a8           	tay
    39fd: 8a           	txa
    39fe: d0 03        	bne	$3a03 <memcpy+0x7>
    3a00: 98           	tya
    3a01: f0 25        	beq	$3a28 <memcpy+0x2c>
    3a03: a5 04        	lda	$4                      ; 0x4 <__rc2>
    3a05: 85 08        	sta	$8                      ; 0x8 <__rc6>
    3a07: a5 05        	lda	$5                      ; 0x5 <__rc3>
    3a09: 85 09        	sta	$9                      ; 0x9 <__rc7>
    3a0b: b2 06        	lda	($6),z                  ; 0x6 <__rc4>
    3a0d: 92 08        	sta	($8),z                  ; 0x8 <__rc6>
    3a0f: e6 08        	inc	$8                      ; 0x8 <__rc6>
    3a11: d0 02        	bne	$3a15 <memcpy+0x19>
    3a13: e6 09        	inc	$9                      ; 0x9 <__rc7>
    3a15: e6 06        	inc	$6                      ; 0x6 <__rc4>
    3a17: d0 02        	bne	$3a1b <memcpy+0x1f>
    3a19: e6 07        	inc	$7                      ; 0x7 <__rc5>
    3a1b: 98           	tya
    3a1c: 88           	dey
    3a1d: c9 00        	cmp	#$0
    3a1f: d0 01        	bne	$3a22 <memcpy+0x26>
    3a21: ca           	dex
    3a22: 8a           	txa
    3a23: d0 e6        	bne	$3a0b <memcpy+0xf>
    3a25: 98           	tya
    3a26: d0 e3        	bne	$3a0b <memcpy+0xf>
    3a28: 60           	rts

00003a29 <__memset>:
    3a29: 80 0f        	bra	$3a3a <__memset+0x11>
    3a2b: 92 04        	sta	($4),z                  ; 0x4 <__rc2>
    3a2d: e6 04        	inc	$4                      ; 0x4 <__rc2>
    3a2f: d0 02        	bne	$3a33 <__memset+0xa>
    3a31: e6 05        	inc	$5                      ; 0x5 <__rc3>
    3a33: da           	phx
    3a34: 7a           	ply
    3a35: ca           	dex
    3a36: c0 00        	cpy	#$0
    3a38: f0 09        	beq	$3a43 <__memset+0x1a>
    3a3a: a4 06        	ldy	$6                      ; 0x6 <__rc4>
    3a3c: d0 ed        	bne	$3a2b <__memset+0x2>
    3a3e: e0 00        	cpx	#$0
    3a40: d0 e9        	bne	$3a2b <__memset+0x2>
    3a42: 60           	rts
    3a43: c6 06        	dec	$6                      ; 0x6 <__rc4>
    3a45: 4c 3a 3a     	jmp	$3a3a <__memset+0x11>
